
test.exe:     file format elf32-bigmips

Disassembly of section .text:

00000000 <entry>:
       0:	3c1c0000 	lui	$gp,0x0
       4:	379c0000 	ori	$gp,$gp,0x0
       8:	3c040000 	lui	$a0,0x0
       c:	34840000 	ori	$a0,$a0,0x0
      10:	3c050000 	lui	$a1,0x0
      14:	34a50000 	ori	$a1,$a1,0x0
      18:	3c1d0000 	lui	$sp,0x0
      1c:	37bdfff0 	ori	$sp,$sp,0xfff0
      20:	ac800000 	sw	$zero,0($a0)
      24:	0085182a 	slt	$v1,$a0,$a1
      28:	1460fffd 	bnez	$v1,20 <entry+0x20>
      2c:	24840004 	addiu	$a0,$a0,4
      30:	0c000000 	jal	0 <entry>
      34:	00000000 	nop
      38:	0800000e 	j	38 <entry+0x38>
      3c:	341affff 	li	$k0,0xffff
      40:	341b002e 	li	$k1,0x2e
      44:	a35b0000 	sb	$k1,0($k0)
      48:	341a0001 	li	$k0,0x1
      4c:	401b7000 	mfc0	$k1,$epc
      50:	03600008 	jr	$k1
      54:	409a6000 	mtc0	$k0,$status

00000058 <isr_enable>:
      58:	03e00008 	jr	$ra
      5c:	40846000 	mtc0	$a0,$status

00000060 <putchar>:
      60:	3405ffff 	li	$a1,0xffff
      64:	03e00008 	jr	$ra
      68:	a0a40000 	sb	$a0,0($a1)

0000006c <puts>:
      6c:	3405ffff 	li	$a1,0xffff
      70:	80860000 	lb	$a2,0($a0)
      74:	10c00003 	beqz	$a2,84 <puts+0x18>
      78:	24840001 	addiu	$a0,$a0,1
      7c:	1000fffc 	b	70 <puts+0x4>
      80:	a0a60000 	sb	$a2,0($a1)
      84:	03e00008 	jr	$ra
      88:	34020000 	li	$v0,0x0

0000008c <print_uart>:
      8c:	90820000 	lbu	$v0,0($a0)
      90:	00000000 	nop
      94:	10400009 	beqz	$v0,bc <print_uart+0x30>
      98:	00401825 	move	$v1,$v0
      9c:	3c052000 	lui	$a1,0x2000
      a0:	00601025 	move	$v0,$v1
      a4:	a0a20000 	sb	$v0,0($a1)
      a8:	24840001 	addiu	$a0,$a0,1
      ac:	90830000 	lbu	$v1,0($a0)
      b0:	00000000 	nop
      b4:	1460fffb 	bnez	$v1,a4 <print_uart+0x18>
      b8:	00601025 	move	$v0,$v1
      bc:	03e00008 	jr	$ra
      c0:	00000000 	nop

000000c4 <putc_uart>:
      c4:	308400ff 	andi	$a0,$a0,0xff
      c8:	3c022000 	lui	$v0,0x2000
      cc:	03e00008 	jr	$ra
      d0:	a0440000 	sb	$a0,0($v0)

000000d4 <read_uart>:
      d4:	3c022000 	lui	$v0,0x2000
      d8:	8c420000 	lw	$v0,0($v0)
      dc:	03e00008 	jr	$ra
      e0:	304200ff 	andi	$v0,$v0,0xff

000000e4 <print>:
      e4:	90820000 	lbu	$v0,0($a0)
      e8:	00000000 	nop
      ec:	10400009 	beqz	$v0,114 <print+0x30>
      f0:	00401825 	move	$v1,$v0
      f4:	3c052000 	lui	$a1,0x2000
      f8:	00601025 	move	$v0,$v1
      fc:	a0a20000 	sb	$v0,0($a1)
     100:	24840001 	addiu	$a0,$a0,1
     104:	90830000 	lbu	$v1,0($a0)
     108:	00000000 	nop
     10c:	1460fffb 	bnez	$v1,fc <print+0x18>
     110:	00601025 	move	$v0,$v1
     114:	3c022000 	lui	$v0,0x2000
     118:	03e00008 	jr	$ra
     11c:	a0400000 	sb	$zero,0($v0)

00000120 <print_char>:
     120:	308400ff 	andi	$a0,$a0,0xff
     124:	3c022000 	lui	$v0,0x2000
     128:	03e00008 	jr	$ra
     12c:	a0440000 	sb	$a0,0($v0)

00000130 <print_uchar>:
     130:	308400ff 	andi	$a0,$a0,0xff
     134:	3c022000 	lui	$v0,0x2000
     138:	03e00008 	jr	$ra
     13c:	a0440000 	sb	$a0,0($v0)

00000140 <random>:
     140:	8f838010 	lw	$v1,-32752($gp)
     144:	00000000 	nop
     148:	30620001 	andi	$v0,$v1,0x1
     14c:	10400005 	beqz	$v0,164 <random+0x24>
     150:	00031042 	srl	$v0,$v1,0x1
     154:	3c038000 	lui	$v1,0x8000
     158:	34630057 	ori	$v1,$v1,0x57
     15c:	10000004 	b	170 <random+0x30>
     160:	00431026 	xor	$v0,$v0,$v1
     164:	8f828010 	lw	$v0,-32752($gp)
     168:	00000000 	nop
     16c:	00021042 	srl	$v0,$v0,0x1
     170:	af828010 	sw	$v0,-32752($gp)
     174:	8f828010 	lw	$v0,-32752($gp)
     178:	03e00008 	jr	$ra
     17c:	00000000 	nop

00000180 <print_num>:
     180:	27bdffd8 	addiu	$sp,$sp,-40
     184:	afbf0020 	sw	$ra,32($sp)
     188:	afb3001c 	sw	$s3,28($sp)
     18c:	afb20018 	sw	$s2,24($sp)
     190:	afb10014 	sw	$s1,20($sp)
     194:	afb00010 	sw	$s0,16($sp)
     198:	00809025 	move	$s2,$a0
     19c:	241103e8 	li	$s1,1000
     1a0:	3c13cccc 	lui	$s3,0xcccc
     1a4:	3673cccd 	ori	$s3,$s3,0xcccd
     1a8:	16200002 	bnez	$s1,1b4 <print_num+0x34>
     1ac:	0251001b 	divu	$zero,$s2,$s1
     1b0:	0007000d 	break	0x7
     1b4:	00008012 	mflo	$s0
     1b8:	26040030 	addiu	$a0,$s0,48
     1bc:	0c000031 	jal	c4 <putc_uart>
     1c0:	308400ff 	andi	$a0,$a0,0xff
     1c4:	02110018 	mult	$s0,$s1
     1c8:	00001012 	mflo	$v0
     1cc:	02429023 	subu	$s2,$s2,$v0
     1d0:	00000000 	nop
     1d4:	02330019 	multu	$s1,$s3
     1d8:	00001010 	mfhi	$v0
     1dc:	000288c2 	srl	$s1,$v0,0x3
     1e0:	1620fff1 	bnez	$s1,1a8 <print_num+0x28>
     1e4:	00000000 	nop
     1e8:	8fbf0020 	lw	$ra,32($sp)
     1ec:	8fb3001c 	lw	$s3,28($sp)
     1f0:	8fb20018 	lw	$s2,24($sp)
     1f4:	8fb10014 	lw	$s1,20($sp)
     1f8:	8fb00010 	lw	$s0,16($sp)
     1fc:	03e00008 	jr	$ra
     200:	27bd0028 	addiu	$sp,$sp,40

00000204 <memcpy>:
     204:	10c00009 	beqz	$a2,22c <memcpy+0x28>
     208:	00001825 	move	$v1,$zero
     20c:	90a20000 	lbu	$v0,0($a1)
     210:	00000000 	nop
     214:	a0820000 	sb	$v0,0($a0)
     218:	24a50001 	addiu	$a1,$a1,1
     21c:	24630001 	addiu	$v1,$v1,1
     220:	0066102b 	sltu	$v0,$v1,$a2
     224:	1440fff9 	bnez	$v0,20c <memcpy+0x8>
     228:	24840001 	addiu	$a0,$a0,1
     22c:	03e00008 	jr	$ra
     230:	00000000 	nop

00000234 <memcmp>:
     234:	10c0000c 	beqz	$a2,268 <memcmp+0x34>
     238:	00003825 	move	$a3,$zero
     23c:	90830000 	lbu	$v1,0($a0)
     240:	90a20000 	lbu	$v0,0($a1)
     244:	24a50001 	addiu	$a1,$a1,1
     248:	10620003 	beq	$v1,$v0,258 <memcmp+0x24>
     24c:	24840001 	addiu	$a0,$a0,1
     250:	10000006 	b	26c <memcmp+0x38>
     254:	24020001 	li	$v0,1
     258:	24e70001 	addiu	$a3,$a3,1
     25c:	00e6102b 	sltu	$v0,$a3,$a2
     260:	1440fff6 	bnez	$v0,23c <memcmp+0x8>
     264:	00000000 	nop
     268:	00001025 	move	$v0,$zero
     26c:	03e00008 	jr	$ra
     270:	00000000 	nop
     274:	288200ff 	slti	$v0,$a0,255
     278:	14400009 	bnez	$v0,2a0 <memcmp+0x6c>
     27c:	00000000 	nop
     280:	2484ff01 	addiu	$a0,$a0,-255
     284:	00041203 	sra	$v0,$a0,0x8
     288:	308300ff 	andi	$v1,$a0,0xff
     28c:	00432021 	addu	$a0,$v0,$v1
     290:	288200ff 	slti	$v0,$a0,255
     294:	1040fffb 	beqz	$v0,284 <memcmp+0x50>
     298:	2484ff01 	addiu	$a0,$a0,-255
     29c:	248400ff 	addiu	$a0,$a0,255
     2a0:	03e00008 	jr	$ra
     2a4:	00801025 	move	$v0,$a0

000002a8 <init_rs>:
     2a8:	27bdffe8 	addiu	$sp,$sp,-24
     2ac:	afbf0010 	sw	$ra,16($sp)
     2b0:	0c0000b4 	jal	2d0 <generate_gf>
     2b4:	00000000 	nop
     2b8:	0c000107 	jal	41c <gen_poly>
     2bc:	00000000 	nop
     2c0:	8fbf0010 	lw	$ra,16($sp)
     2c4:	00000000 	nop
     2c8:	03e00008 	jr	$ra
     2cc:	27bd0018 	addiu	$sp,$sp,24

000002d0 <generate_gf>:
     2d0:	24060001 	li	$a2,1
     2d4:	3c020000 	lui	$v0,0x0
     2d8:	ac400020 	sw	$zero,32($v0)
     2dc:	00002825 	move	$a1,$zero
     2e0:	3c020000 	lui	$v0,0x0
     2e4:	24440000 	addiu	$a0,$v0,0
     2e8:	3c020000 	lui	$v0,0x0
     2ec:	24480000 	addiu	$t0,$v0,0
     2f0:	3c020000 	lui	$v0,0x0
     2f4:	24470000 	addiu	$a3,$v0,0
     2f8:	00051880 	sll	$v1,$a1,0x2
     2fc:	00641021 	addu	$v0,$v1,$a0
     300:	ac460000 	sw	$a2,0($v0)
     304:	00061080 	sll	$v0,$a2,0x2
     308:	00481021 	addu	$v0,$v0,$t0
     30c:	ac450000 	sw	$a1,0($v0)
     310:	00671821 	addu	$v1,$v1,$a3
     314:	8c620000 	lw	$v0,0($v1)
     318:	00000000 	nop
     31c:	10400005 	beqz	$v0,334 <generate_gf+0x64>
     320:	00000000 	nop
     324:	8c820020 	lw	$v0,32($a0)
     328:	00000000 	nop
     32c:	00c21026 	xor	$v0,$a2,$v0
     330:	ac820020 	sw	$v0,32($a0)
     334:	24a50001 	addiu	$a1,$a1,1
     338:	28a20008 	slti	$v0,$a1,8
     33c:	1440ffee 	bnez	$v0,2f8 <generate_gf+0x28>
     340:	00063040 	sll	$a2,$a2,0x1
     344:	3c030000 	lui	$v1,0x0
     348:	24630000 	addiu	$v1,$v1,0
     34c:	3c020000 	lui	$v0,0x0
     350:	8c420020 	lw	$v0,32($v0)
     354:	00000000 	nop
     358:	00021080 	sll	$v0,$v0,0x2
     35c:	00431021 	addu	$v0,$v0,$v1
     360:	24030008 	li	$v1,8
     364:	ac430000 	sw	$v1,0($v0)
     368:	00063043 	sra	$a2,$a2,0x1
     36c:	24050009 	li	$a1,9
     370:	3c020000 	lui	$v0,0x0
     374:	24470000 	addiu	$a3,$v0,0
     378:	3c020000 	lui	$v0,0x0
     37c:	24480000 	addiu	$t0,$v0,0
     380:	24a2ffff 	addiu	$v0,$a1,-1
     384:	00021080 	sll	$v0,$v0,0x2
     388:	00471021 	addu	$v0,$v0,$a3
     38c:	8c430000 	lw	$v1,0($v0)
     390:	00000000 	nop
     394:	0066102a 	slt	$v0,$v1,$a2
     398:	14400007 	bnez	$v0,3b8 <generate_gf+0xe8>
     39c:	00051080 	sll	$v0,$a1,0x2
     3a0:	00471021 	addu	$v0,$v0,$a3
     3a4:	00c31826 	xor	$v1,$a2,$v1
     3a8:	00031840 	sll	$v1,$v1,0x1
     3ac:	8ce40020 	lw	$a0,32($a3)
     3b0:	10000008 	b	3d4 <generate_gf+0x104>
     3b4:	00641826 	xor	$v1,$v1,$a0
     3b8:	00471021 	addu	$v0,$v0,$a3
     3bc:	24a3ffff 	addiu	$v1,$a1,-1
     3c0:	00031880 	sll	$v1,$v1,0x2
     3c4:	00671821 	addu	$v1,$v1,$a3
     3c8:	8c630000 	lw	$v1,0($v1)
     3cc:	00000000 	nop
     3d0:	00031840 	sll	$v1,$v1,0x1
     3d4:	ac430000 	sw	$v1,0($v0)
     3d8:	00051080 	sll	$v0,$a1,0x2
     3dc:	00471021 	addu	$v0,$v0,$a3
     3e0:	8c420000 	lw	$v0,0($v0)
     3e4:	00000000 	nop
     3e8:	00021080 	sll	$v0,$v0,0x2
     3ec:	00481021 	addu	$v0,$v0,$t0
     3f0:	ac450000 	sw	$a1,0($v0)
     3f4:	24a50001 	addiu	$a1,$a1,1
     3f8:	28a200ff 	slti	$v0,$a1,255
     3fc:	1440ffe1 	bnez	$v0,384 <generate_gf+0xb4>
     400:	24a2ffff 	addiu	$v0,$a1,-1
     404:	3c020000 	lui	$v0,0x0
     408:	240300ff 	li	$v1,255
     40c:	ac430000 	sw	$v1,0($v0)
     410:	3c020000 	lui	$v0,0x0
     414:	03e00008 	jr	$ra
     418:	ac4003fc 	sw	$zero,1020($v0)

0000041c <gen_poly>:
     41c:	27bdffc8 	addiu	$sp,$sp,-56
     420:	afbf0030 	sw	$ra,48($sp)
     424:	afb7002c 	sw	$s7,44($sp)
     428:	afb60028 	sw	$s6,40($sp)
     42c:	afb50024 	sw	$s5,36($sp)
     430:	afb40020 	sw	$s4,32($sp)
     434:	afb3001c 	sw	$s3,28($sp)
     438:	afb20018 	sw	$s2,24($sp)
     43c:	afb10014 	sw	$s1,20($sp)
     440:	afb00010 	sw	$s0,16($sp)
     444:	3c030000 	lui	$v1,0x0
     448:	24640000 	addiu	$a0,$v1,0
     44c:	3c020000 	lui	$v0,0x0
     450:	8c420004 	lw	$v0,4($v0)
     454:	00000000 	nop
     458:	ac620000 	sw	$v0,0($v1)
     45c:	24020001 	li	$v0,1
     460:	ac820004 	sw	$v0,4($a0)
     464:	24120002 	li	$s2,2
     468:	0060b825 	move	$s7,$v1
     46c:	00601025 	move	$v0,$v1
     470:	24530000 	addiu	$s3,$v0,0
     474:	3c020000 	lui	$v0,0x0
     478:	24560000 	addiu	$s6,$v0,0
     47c:	3c020000 	lui	$v0,0x0
     480:	24550000 	addiu	$s5,$v0,0
     484:	00121080 	sll	$v0,$s2,0x2
     488:	00531021 	addu	$v0,$v0,$s3
     48c:	24030001 	li	$v1,1
     490:	2650ffff 	addiu	$s0,$s2,-1
     494:	1a000024 	blez	$s0,528 <gen_poly+0x10c>
     498:	ac430000 	sw	$v1,0($v0)
     49c:	26540001 	addiu	$s4,$s2,1
     4a0:	00101080 	sll	$v0,$s0,0x2
     4a4:	00538821 	addu	$s1,$v0,$s3
     4a8:	8e220000 	lw	$v0,0($s1)
     4ac:	00000000 	nop
     4b0:	10400012 	beqz	$v0,4fc <gen_poly+0xe0>
     4b4:	00021080 	sll	$v0,$v0,0x2
     4b8:	00561021 	addu	$v0,$v0,$s6
     4bc:	8c440000 	lw	$a0,0($v0)
     4c0:	00000000 	nop
     4c4:	02842021 	addu	$a0,$s4,$a0
     4c8:	0c00009d 	jal	274 <memcmp+0x40>
     4cc:	2484ffff 	addiu	$a0,$a0,-1
     4d0:	2603ffff 	addiu	$v1,$s0,-1
     4d4:	00031880 	sll	$v1,$v1,0x2
     4d8:	00731821 	addu	$v1,$v1,$s3
     4dc:	00021080 	sll	$v0,$v0,0x2
     4e0:	00551021 	addu	$v0,$v0,$s5
     4e4:	8c630000 	lw	$v1,0($v1)
     4e8:	8c420000 	lw	$v0,0($v0)
     4ec:	00000000 	nop
     4f0:	00621826 	xor	$v1,$v1,$v0
     4f4:	10000009 	b	51c <gen_poly+0x100>
     4f8:	ae230000 	sw	$v1,0($s1)
     4fc:	00101080 	sll	$v0,$s0,0x2
     500:	00531021 	addu	$v0,$v0,$s3
     504:	2603ffff 	addiu	$v1,$s0,-1
     508:	00031880 	sll	$v1,$v1,0x2
     50c:	00731821 	addu	$v1,$v1,$s3
     510:	8c630000 	lw	$v1,0($v1)
     514:	00000000 	nop
     518:	ac430000 	sw	$v1,0($v0)
     51c:	2610ffff 	addiu	$s0,$s0,-1
     520:	1e00ffe0 	bgtz	$s0,4a4 <gen_poly+0x88>
     524:	00101080 	sll	$v0,$s0,0x2
     528:	8ee20000 	lw	$v0,0($s7)
     52c:	00000000 	nop
     530:	00021080 	sll	$v0,$v0,0x2
     534:	00561021 	addu	$v0,$v0,$s6
     538:	8c440000 	lw	$a0,0($v0)
     53c:	26500001 	addiu	$s0,$s2,1
     540:	0c00009d 	jal	274 <memcmp+0x40>
     544:	02442021 	addu	$a0,$s2,$a0
     548:	00021080 	sll	$v0,$v0,0x2
     54c:	00551021 	addu	$v0,$v0,$s5
     550:	8c420000 	lw	$v0,0($v0)
     554:	00000000 	nop
     558:	aee20000 	sw	$v0,0($s7)
     55c:	02009025 	move	$s2,$s0
     560:	2a420021 	slti	$v0,$s2,33
     564:	1440ffc8 	bnez	$v0,488 <gen_poly+0x6c>
     568:	00121080 	sll	$v0,$s2,0x2
     56c:	00009025 	move	$s2,$zero
     570:	3c020000 	lui	$v0,0x0
     574:	24450000 	addiu	$a1,$v0,0
     578:	3c020000 	lui	$v0,0x0
     57c:	24440000 	addiu	$a0,$v0,0
     580:	00121880 	sll	$v1,$s2,0x2
     584:	00651821 	addu	$v1,$v1,$a1
     588:	8c620000 	lw	$v0,0($v1)
     58c:	00000000 	nop
     590:	00021080 	sll	$v0,$v0,0x2
     594:	00441021 	addu	$v0,$v0,$a0
     598:	8c420000 	lw	$v0,0($v0)
     59c:	00000000 	nop
     5a0:	ac620000 	sw	$v0,0($v1)
     5a4:	26520001 	addiu	$s2,$s2,1
     5a8:	2a420021 	slti	$v0,$s2,33
     5ac:	1440fff4 	bnez	$v0,580 <gen_poly+0x164>
     5b0:	00000000 	nop
     5b4:	8fbf0030 	lw	$ra,48($sp)
     5b8:	8fb7002c 	lw	$s7,44($sp)
     5bc:	8fb60028 	lw	$s6,40($sp)
     5c0:	8fb50024 	lw	$s5,36($sp)
     5c4:	8fb40020 	lw	$s4,32($sp)
     5c8:	8fb3001c 	lw	$s3,28($sp)
     5cc:	8fb20018 	lw	$s2,24($sp)
     5d0:	8fb10014 	lw	$s1,20($sp)
     5d4:	8fb00010 	lw	$s0,16($sp)
     5d8:	03e00008 	jr	$ra
     5dc:	27bd0038 	addiu	$sp,$sp,56

000005e0 <encode_rs>:
     5e0:	27bdffc8 	addiu	$sp,$sp,-56
     5e4:	afbf0034 	sw	$ra,52($sp)
     5e8:	afbe0030 	sw	$s8,48($sp)
     5ec:	afb7002c 	sw	$s7,44($sp)
     5f0:	afb60028 	sw	$s6,40($sp)
     5f4:	afb50024 	sw	$s5,36($sp)
     5f8:	afb40020 	sw	$s4,32($sp)
     5fc:	afb3001c 	sw	$s3,28($sp)
     600:	afb20018 	sw	$s2,24($sp)
     604:	afb10014 	sw	$s1,20($sp)
     608:	afb00010 	sw	$s0,16($sp)
     60c:	afa40038 	sw	$a0,56($sp)
     610:	00a09025 	move	$s2,$a1
     614:	2403001f 	li	$v1,31
     618:	02431021 	addu	$v0,$s2,$v1
     61c:	2463ffff 	addiu	$v1,$v1,-1
     620:	0461fffd 	bgez	$v1,618 <encode_rs+0x38>
     624:	a0400000 	sb	$zero,0($v0)
     628:	241300de 	li	$s3,222
     62c:	3c020000 	lui	$v0,0x0
     630:	245e0000 	addiu	$s8,$v0,0
     634:	241500ff 	li	$s5,255
     638:	3c170000 	lui	$s7,0x0
     63c:	02e01025 	move	$v0,$s7
     640:	24560000 	addiu	$s6,$v0,0
     644:	3c020000 	lui	$v0,0x0
     648:	24540000 	addiu	$s4,$v0,0
     64c:	8fa60038 	lw	$a2,56($sp)
     650:	00000000 	nop
     654:	00d31021 	addu	$v0,$a2,$s3
     658:	90420000 	lbu	$v0,0($v0)
     65c:	9243001f 	lbu	$v1,31($s2)
     660:	00000000 	nop
     664:	00431026 	xor	$v0,$v0,$v1
     668:	00021080 	sll	$v0,$v0,0x2
     66c:	005e1021 	addu	$v0,$v0,$s8
     670:	8c510000 	lw	$s1,0($v0)
     674:	00000000 	nop
     678:	12350021 	beq	$s1,$s5,700 <encode_rs+0x120>
     67c:	2410001f 	li	$s0,31
     680:	00101080 	sll	$v0,$s0,0x2
     684:	00561021 	addu	$v0,$v0,$s6
     688:	8c420000 	lw	$v0,0($v0)
     68c:	00000000 	nop
     690:	1055000c 	beq	$v0,$s5,6c4 <encode_rs+0xe4>
     694:	00000000 	nop
     698:	0c00009d 	jal	274 <memcmp+0x40>
     69c:	02222021 	addu	$a0,$s1,$v0
     6a0:	02502021 	addu	$a0,$s2,$s0
     6a4:	00021080 	sll	$v0,$v0,0x2
     6a8:	00541021 	addu	$v0,$v0,$s4
     6ac:	9083ffff 	lbu	$v1,-1($a0)
     6b0:	90420003 	lbu	$v0,3($v0)
     6b4:	00000000 	nop
     6b8:	00621826 	xor	$v1,$v1,$v0
     6bc:	10000005 	b	6d4 <encode_rs+0xf4>
     6c0:	a0830000 	sb	$v1,0($a0)
     6c4:	02501021 	addu	$v0,$s2,$s0
     6c8:	9043ffff 	lbu	$v1,-1($v0)
     6cc:	00000000 	nop
     6d0:	a0430000 	sb	$v1,0($v0)
     6d4:	2610ffff 	addiu	$s0,$s0,-1
     6d8:	1e00ffea 	bgtz	$s0,684 <encode_rs+0xa4>
     6dc:	00101080 	sll	$v0,$s0,0x2
     6e0:	8ee40000 	lw	$a0,0($s7)
     6e4:	0c00009d 	jal	274 <memcmp+0x40>
     6e8:	02242021 	addu	$a0,$s1,$a0
     6ec:	00021080 	sll	$v0,$v0,0x2
     6f0:	00541021 	addu	$v0,$v0,$s4
     6f4:	90420003 	lbu	$v0,3($v0)
     6f8:	10000007 	b	718 <encode_rs+0x138>
     6fc:	a2420000 	sb	$v0,0($s2)
     700:	02501021 	addu	$v0,$s2,$s0
     704:	9043ffff 	lbu	$v1,-1($v0)
     708:	2610ffff 	addiu	$s0,$s0,-1
     70c:	1e00fffc 	bgtz	$s0,700 <encode_rs+0x120>
     710:	a0430000 	sb	$v1,0($v0)
     714:	a2400000 	sb	$zero,0($s2)
     718:	2673ffff 	addiu	$s3,$s3,-1
     71c:	0661ffcb 	bgez	$s3,64c <encode_rs+0x6c>
     720:	00001025 	move	$v0,$zero
     724:	8fbf0034 	lw	$ra,52($sp)
     728:	8fbe0030 	lw	$s8,48($sp)
     72c:	8fb7002c 	lw	$s7,44($sp)
     730:	8fb60028 	lw	$s6,40($sp)
     734:	8fb50024 	lw	$s5,36($sp)
     738:	8fb40020 	lw	$s4,32($sp)
     73c:	8fb3001c 	lw	$s3,28($sp)
     740:	8fb20018 	lw	$s2,24($sp)
     744:	8fb10014 	lw	$s1,20($sp)
     748:	8fb00010 	lw	$s0,16($sp)
     74c:	03e00008 	jr	$ra
     750:	27bd0038 	addiu	$sp,$sp,56

00000754 <eras_dec_rs>:
     754:	27bdf780 	addiu	$sp,$sp,-2176
     758:	afbf087c 	sw	$ra,2172($sp)
     75c:	afbe0878 	sw	$s8,2168($sp)
     760:	afb70874 	sw	$s7,2164($sp)
     764:	afb60870 	sw	$s6,2160($sp)
     768:	afb5086c 	sw	$s5,2156($sp)
     76c:	afb40868 	sw	$s4,2152($sp)
     770:	afb30864 	sw	$s3,2148($sp)
     774:	afb20860 	sw	$s2,2144($sp)
     778:	afb1085c 	sw	$s1,2140($sp)
     77c:	afb00858 	sw	$s0,2136($sp)
     780:	afa40880 	sw	$a0,2176($sp)
     784:	00a0f025 	move	$s8,$a1
     788:	afa60888 	sw	$a2,2184($sp)
     78c:	241000fe 	li	$s0,254
     790:	27a40010 	addiu	$a0,$sp,16
     794:	3c020000 	lui	$v0,0x0
     798:	24450000 	addiu	$a1,$v0,0
     79c:	00101880 	sll	$v1,$s0,0x2
     7a0:	00831821 	addu	$v1,$a0,$v1
     7a4:	8fa70880 	lw	$a3,2176($sp)
     7a8:	00000000 	nop
     7ac:	00f01021 	addu	$v0,$a3,$s0
     7b0:	90420000 	lbu	$v0,0($v0)
     7b4:	00000000 	nop
     7b8:	00021080 	sll	$v0,$v0,0x2
     7bc:	00451021 	addu	$v0,$v0,$a1
     7c0:	8c420000 	lw	$v0,0($v0)
     7c4:	2610ffff 	addiu	$s0,$s0,-1
     7c8:	0601fff4 	bgez	$s0,79c <eras_dec_rs+0x48>
     7cc:	ac620000 	sw	$v0,0($v1)
     7d0:	00009825 	move	$s3,$zero
     7d4:	24100001 	li	$s0,1
     7d8:	27b40010 	addiu	$s4,$sp,16
     7dc:	241600ff 	li	$s6,255
     7e0:	3c020000 	lui	$v0,0x0
     7e4:	24550000 	addiu	$s5,$v0,0
     7e8:	00008825 	move	$s1,$zero
     7ec:	02209025 	move	$s2,$s1
     7f0:	00121080 	sll	$v0,$s2,0x2
     7f4:	02821021 	addu	$v0,$s4,$v0
     7f8:	8c420000 	lw	$v0,0($v0)
     7fc:	00000000 	nop
     800:	1056000a 	beq	$v0,$s6,82c <eras_dec_rs+0xd8>
     804:	00000000 	nop
     808:	02120018 	mult	$s0,$s2
     80c:	00003812 	mflo	$a3
     810:	0c00009d 	jal	274 <memcmp+0x40>
     814:	00e22021 	addu	$a0,$a3,$v0
     818:	00021080 	sll	$v0,$v0,0x2
     81c:	00551021 	addu	$v0,$v0,$s5
     820:	8c420000 	lw	$v0,0($v0)
     824:	00000000 	nop
     828:	02228826 	xor	$s1,$s1,$v0
     82c:	26520001 	addiu	$s2,$s2,1
     830:	2a4200ff 	slti	$v0,$s2,255
     834:	1440ffef 	bnez	$v0,7f4 <eras_dec_rs+0xa0>
     838:	00121080 	sll	$v0,$s2,0x2
     83c:	00101080 	sll	$v0,$s0,0x2
     840:	03a22021 	addu	$a0,$sp,$v0
     844:	3c030000 	lui	$v1,0x0
     848:	24630000 	addiu	$v1,$v1,0
     84c:	00111080 	sll	$v0,$s1,0x2
     850:	00431021 	addu	$v0,$v0,$v1
     854:	8c420000 	lw	$v0,0($v0)
     858:	00000000 	nop
     85c:	ac820498 	sw	$v0,1176($a0)
     860:	26100001 	addiu	$s0,$s0,1
     864:	2a020021 	slti	$v0,$s0,33
     868:	1440ffdf 	bnez	$v0,7e8 <eras_dec_rs+0x94>
     86c:	02719825 	or	$s3,$s3,$s1
     870:	16600003 	bnez	$s3,880 <eras_dec_rs+0x12c>
     874:	2403001f 	li	$v1,31
     878:	100001ee 	b	1034 <eras_dec_rs+0x8e0>
     87c:	00001025 	move	$v0,$zero
     880:	27a40414 	addiu	$a0,$sp,1044
     884:	00031080 	sll	$v0,$v1,0x2
     888:	00821021 	addu	$v0,$a0,$v0
     88c:	2463ffff 	addiu	$v1,$v1,-1
     890:	0461fffc 	bgez	$v1,884 <eras_dec_rs+0x130>
     894:	ac400000 	sw	$zero,0($v0)
     898:	24020001 	li	$v0,1
     89c:	afa20410 	sw	$v0,1040($sp)
     8a0:	8fa70888 	lw	$a3,2184($sp)
     8a4:	00000000 	nop
     8a8:	18e00036 	blez	$a3,984 <eras_dec_rs+0x230>
     8ac:	3c030000 	lui	$v1,0x0
     8b0:	24630000 	addiu	$v1,$v1,0
     8b4:	8fc20000 	lw	$v0,0($s8)
     8b8:	00000000 	nop
     8bc:	00021080 	sll	$v0,$v0,0x2
     8c0:	00431021 	addu	$v0,$v0,$v1
     8c4:	8c420000 	lw	$v0,0($v0)
     8c8:	00000000 	nop
     8cc:	afa20414 	sw	$v0,1044($sp)
     8d0:	24100001 	li	$s0,1
     8d4:	0207102a 	slt	$v0,$s0,$a3
     8d8:	1040002a 	beqz	$v0,984 <eras_dec_rs+0x230>
     8dc:	3c020000 	lui	$v0,0x0
     8e0:	24570000 	addiu	$s7,$v0,0
     8e4:	27b30410 	addiu	$s3,$sp,1040
     8e8:	241600ff 	li	$s6,255
     8ec:	00101080 	sll	$v0,$s0,0x2
     8f0:	005e1021 	addu	$v0,$v0,$s8
     8f4:	8c540000 	lw	$s4,0($v0)
     8f8:	26120001 	addiu	$s2,$s0,1
     8fc:	1a40001b 	blez	$s2,96c <eras_dec_rs+0x218>
     900:	3c020000 	lui	$v0,0x0
     904:	24550000 	addiu	$s5,$v0,0
     908:	2642ffff 	addiu	$v0,$s2,-1
     90c:	00021080 	sll	$v0,$v0,0x2
     910:	02621021 	addu	$v0,$s3,$v0
     914:	8c420000 	lw	$v0,0($v0)
     918:	00000000 	nop
     91c:	00021080 	sll	$v0,$v0,0x2
     920:	00571021 	addu	$v0,$v0,$s7
     924:	8c510000 	lw	$s1,0($v0)
     928:	00000000 	nop
     92c:	1236000c 	beq	$s1,$s6,960 <eras_dec_rs+0x20c>
     930:	00000000 	nop
     934:	0c00009d 	jal	274 <memcmp+0x40>
     938:	02912021 	addu	$a0,$s4,$s1
     93c:	00122080 	sll	$a0,$s2,0x2
     940:	02642021 	addu	$a0,$s3,$a0
     944:	00021080 	sll	$v0,$v0,0x2
     948:	00551021 	addu	$v0,$v0,$s5
     94c:	8c830000 	lw	$v1,0($a0)
     950:	8c420000 	lw	$v0,0($v0)
     954:	00000000 	nop
     958:	00621826 	xor	$v1,$v1,$v0
     95c:	ac830000 	sw	$v1,0($a0)
     960:	2652ffff 	addiu	$s2,$s2,-1
     964:	1e40ffe9 	bgtz	$s2,90c <eras_dec_rs+0x1b8>
     968:	2642ffff 	addiu	$v0,$s2,-1
     96c:	26100001 	addiu	$s0,$s0,1
     970:	8fa70888 	lw	$a3,2184($sp)
     974:	00000000 	nop
     978:	0207102a 	slt	$v0,$s0,$a3
     97c:	1440ffdc 	bnez	$v0,8f0 <eras_dec_rs+0x19c>
     980:	00101080 	sll	$v0,$s0,0x2
     984:	00008025 	move	$s0,$zero
     988:	27a50520 	addiu	$a1,$sp,1312
     98c:	3c020000 	lui	$v0,0x0
     990:	24460000 	addiu	$a2,$v0,0
     994:	27a40410 	addiu	$a0,$sp,1040
     998:	00101080 	sll	$v0,$s0,0x2
     99c:	00a21821 	addu	$v1,$a1,$v0
     9a0:	00821021 	addu	$v0,$a0,$v0
     9a4:	8c420000 	lw	$v0,0($v0)
     9a8:	00000000 	nop
     9ac:	00021080 	sll	$v0,$v0,0x2
     9b0:	00461021 	addu	$v0,$v0,$a2
     9b4:	8c420000 	lw	$v0,0($v0)
     9b8:	00000000 	nop
     9bc:	ac620000 	sw	$v0,0($v1)
     9c0:	26100001 	addiu	$s0,$s0,1
     9c4:	2a020021 	slti	$v0,$s0,33
     9c8:	1440fff4 	bnez	$v0,99c <eras_dec_rs+0x248>
     9cc:	00101080 	sll	$v0,$s0,0x2
     9d0:	8fb30888 	lw	$s3,2184($sp)
     9d4:	00000000 	nop
     9d8:	afb30840 	sw	$s3,2112($sp)
     9dc:	26730001 	addiu	$s3,$s3,1
     9e0:	2a620021 	slti	$v0,$s3,33
     9e4:	1040009c 	beqz	$v0,c58 <eras_dec_rs+0x504>
     9e8:	27a70498 	addiu	$a3,$sp,1176
     9ec:	27b50410 	addiu	$s5,$sp,1040
     9f0:	afa7084c 	sw	$a3,2124($sp)
     9f4:	241700ff 	li	$s7,255
     9f8:	3c020000 	lui	$v0,0x0
     9fc:	245e0000 	addiu	$s8,$v0,0
     a00:	00008825 	move	$s1,$zero
     a04:	1a60001e 	blez	$s3,a80 <eras_dec_rs+0x32c>
     a08:	02208025 	move	$s0,$s1
     a0c:	3c020000 	lui	$v0,0x0
     a10:	24520000 	addiu	$s2,$v0,0
     a14:	00101080 	sll	$v0,$s0,0x2
     a18:	02a21021 	addu	$v0,$s5,$v0
     a1c:	8c440000 	lw	$a0,0($v0)
     a20:	00000000 	nop
     a24:	10800012 	beqz	$a0,a70 <eras_dec_rs+0x31c>
     a28:	02701023 	subu	$v0,$s3,$s0
     a2c:	00021080 	sll	$v0,$v0,0x2
     a30:	8fa7084c 	lw	$a3,2124($sp)
     a34:	00000000 	nop
     a38:	00e21021 	addu	$v0,$a3,$v0
     a3c:	8c430000 	lw	$v1,0($v0)
     a40:	00000000 	nop
     a44:	1077000a 	beq	$v1,$s7,a70 <eras_dec_rs+0x31c>
     a48:	00041080 	sll	$v0,$a0,0x2
     a4c:	005e1021 	addu	$v0,$v0,$s8
     a50:	8c440000 	lw	$a0,0($v0)
     a54:	0c00009d 	jal	274 <memcmp+0x40>
     a58:	00832021 	addu	$a0,$a0,$v1
     a5c:	00021080 	sll	$v0,$v0,0x2
     a60:	00521021 	addu	$v0,$v0,$s2
     a64:	8c420000 	lw	$v0,0($v0)
     a68:	00000000 	nop
     a6c:	02228826 	xor	$s1,$s1,$v0
     a70:	26100001 	addiu	$s0,$s0,1
     a74:	0213102a 	slt	$v0,$s0,$s3
     a78:	1440ffe7 	bnez	$v0,a18 <eras_dec_rs+0x2c4>
     a7c:	00101080 	sll	$v0,$s0,0x2
     a80:	00111080 	sll	$v0,$s1,0x2
     a84:	005e1021 	addu	$v0,$v0,$s8
     a88:	8c510000 	lw	$s1,0($v0)
     a8c:	00000000 	nop
     a90:	1637000c 	bne	$s1,$s7,ac4 <eras_dec_rs+0x370>
     a94:	2404001f 	li	$a0,31
     a98:	27a60524 	addiu	$a2,$sp,1316
     a9c:	27a50520 	addiu	$a1,$sp,1312
     aa0:	00041080 	sll	$v0,$a0,0x2
     aa4:	00c21821 	addu	$v1,$a2,$v0
     aa8:	00a21021 	addu	$v0,$a1,$v0
     aac:	8c420000 	lw	$v0,0($v0)
     ab0:	2484ffff 	addiu	$a0,$a0,-1
     ab4:	0481fffa 	bgez	$a0,aa0 <eras_dec_rs+0x34c>
     ab8:	ac620000 	sw	$v0,0($v1)
     abc:	10000062 	b	c48 <eras_dec_rs+0x4f4>
     ac0:	afb70520 	sw	$s7,1312($sp)
     ac4:	8fa20410 	lw	$v0,1040($sp)
     ac8:	00000000 	nop
     acc:	afa205a8 	sw	$v0,1448($sp)
     ad0:	00008025 	move	$s0,$zero
     ad4:	27b40520 	addiu	$s4,$sp,1312
     ad8:	27b205a8 	addiu	$s2,$sp,1448
     adc:	3c020000 	lui	$v0,0x0
     ae0:	24560000 	addiu	$s6,$v0,0
     ae4:	00101080 	sll	$v0,$s0,0x2
     ae8:	02821021 	addu	$v0,$s4,$v0
     aec:	8c420000 	lw	$v0,0($v0)
     af0:	00000000 	nop
     af4:	1057000f 	beq	$v0,$s7,b34 <eras_dec_rs+0x3e0>
     af8:	00000000 	nop
     afc:	0c00009d 	jal	274 <memcmp+0x40>
     b00:	02222021 	addu	$a0,$s1,$v0
     b04:	26030001 	addiu	$v1,$s0,1
     b08:	00031880 	sll	$v1,$v1,0x2
     b0c:	02432021 	addu	$a0,$s2,$v1
     b10:	02a31821 	addu	$v1,$s5,$v1
     b14:	00021080 	sll	$v0,$v0,0x2
     b18:	00561021 	addu	$v0,$v0,$s6
     b1c:	8c630000 	lw	$v1,0($v1)
     b20:	8c420000 	lw	$v0,0($v0)
     b24:	00000000 	nop
     b28:	00621826 	xor	$v1,$v1,$v0
     b2c:	10000008 	b	b50 <eras_dec_rs+0x3fc>
     b30:	ac830000 	sw	$v1,0($a0)
     b34:	26020001 	addiu	$v0,$s0,1
     b38:	00021080 	sll	$v0,$v0,0x2
     b3c:	02421821 	addu	$v1,$s2,$v0
     b40:	02a21021 	addu	$v0,$s5,$v0
     b44:	8c420000 	lw	$v0,0($v0)
     b48:	00000000 	nop
     b4c:	ac620000 	sw	$v0,0($v1)
     b50:	26100001 	addiu	$s0,$s0,1
     b54:	2a020020 	slti	$v0,$s0,32
     b58:	1440ffe3 	bnez	$v0,ae8 <eras_dec_rs+0x394>
     b5c:	00101080 	sll	$v0,$s0,0x2
     b60:	8fa70840 	lw	$a3,2112($sp)
     b64:	00000000 	nop
     b68:	00071840 	sll	$v1,$a3,0x1
     b6c:	8fa70888 	lw	$a3,2184($sp)
     b70:	00000000 	nop
     b74:	02672021 	addu	$a0,$s3,$a3
     b78:	2482ffff 	addiu	$v0,$a0,-1
     b7c:	0043102a 	slt	$v0,$v0,$v1
     b80:	1440001e 	bnez	$v0,bfc <eras_dec_rs+0x4a8>
     b84:	27a60524 	addiu	$a2,$sp,1316
     b88:	8fa70840 	lw	$a3,2112($sp)
     b8c:	00000000 	nop
     b90:	00873823 	subu	$a3,$a0,$a3
     b94:	afa70840 	sw	$a3,2112($sp)
     b98:	00008025 	move	$s0,$zero
     b9c:	27b40520 	addiu	$s4,$sp,1312
     ba0:	00101080 	sll	$v0,$s0,0x2
     ba4:	02829021 	addu	$s2,$s4,$v0
     ba8:	02a21021 	addu	$v0,$s5,$v0
     bac:	8c420000 	lw	$v0,0($v0)
     bb0:	00000000 	nop
     bb4:	10400009 	beqz	$v0,bdc <eras_dec_rs+0x488>
     bb8:	00021080 	sll	$v0,$v0,0x2
     bbc:	005e1021 	addu	$v0,$v0,$s8
     bc0:	8c440000 	lw	$a0,0($v0)
     bc4:	00000000 	nop
     bc8:	00912023 	subu	$a0,$a0,$s1
     bcc:	0c00009d 	jal	274 <memcmp+0x40>
     bd0:	248400ff 	addiu	$a0,$a0,255
     bd4:	10000003 	b	be4 <eras_dec_rs+0x490>
     bd8:	ae420000 	sw	$v0,0($s2)
     bdc:	240200ff 	li	$v0,255
     be0:	ae420000 	sw	$v0,0($s2)
     be4:	26100001 	addiu	$s0,$s0,1
     be8:	2a020021 	slti	$v0,$s0,33
     bec:	1440ffed 	bnez	$v0,ba4 <eras_dec_rs+0x450>
     bf0:	00101080 	sll	$v0,$s0,0x2
     bf4:	1000000c 	b	c28 <eras_dec_rs+0x4d4>
     bf8:	24040020 	li	$a0,32
     bfc:	2404001f 	li	$a0,31
     c00:	27a50520 	addiu	$a1,$sp,1312
     c04:	00041080 	sll	$v0,$a0,0x2
     c08:	00c21821 	addu	$v1,$a2,$v0
     c0c:	00a21021 	addu	$v0,$a1,$v0
     c10:	8c420000 	lw	$v0,0($v0)
     c14:	2484ffff 	addiu	$a0,$a0,-1
     c18:	0481fffa 	bgez	$a0,c04 <eras_dec_rs+0x4b0>
     c1c:	ac620000 	sw	$v0,0($v1)
     c20:	afb70520 	sw	$s7,1312($sp)
     c24:	24040020 	li	$a0,32
     c28:	27a505a8 	addiu	$a1,$sp,1448
     c2c:	00041080 	sll	$v0,$a0,0x2
     c30:	02a21821 	addu	$v1,$s5,$v0
     c34:	00a21021 	addu	$v0,$a1,$v0
     c38:	8c420000 	lw	$v0,0($v0)
     c3c:	2484ffff 	addiu	$a0,$a0,-1
     c40:	0481fffa 	bgez	$a0,c2c <eras_dec_rs+0x4d8>
     c44:	ac620000 	sw	$v0,0($v1)
     c48:	26730001 	addiu	$s3,$s3,1
     c4c:	2a620021 	slti	$v0,$s3,33
     c50:	1440ff6c 	bnez	$v0,a04 <eras_dec_rs+0x2b0>
     c54:	00008825 	move	$s1,$zero
     c58:	0000f025 	move	$s8,$zero
     c5c:	03c08025 	move	$s0,$s8
     c60:	27a40410 	addiu	$a0,$sp,1040
     c64:	3c020000 	lui	$v0,0x0
     c68:	24460000 	addiu	$a2,$v0,0
     c6c:	240500ff 	li	$a1,255
     c70:	00101080 	sll	$v0,$s0,0x2
     c74:	00821021 	addu	$v0,$a0,$v0
     c78:	8c430000 	lw	$v1,0($v0)
     c7c:	00000000 	nop
     c80:	00031880 	sll	$v1,$v1,0x2
     c84:	00661821 	addu	$v1,$v1,$a2
     c88:	8c630000 	lw	$v1,0($v1)
     c8c:	00000000 	nop
     c90:	10650002 	beq	$v1,$a1,c9c <eras_dec_rs+0x548>
     c94:	ac430000 	sw	$v1,0($v0)
     c98:	0200f025 	move	$s8,$s0
     c9c:	26100001 	addiu	$s0,$s0,1
     ca0:	2a020021 	slti	$v0,$s0,33
     ca4:	1440fff3 	bnez	$v0,c74 <eras_dec_rs+0x520>
     ca8:	00101080 	sll	$v0,$s0,0x2
     cac:	2404001f 	li	$a0,31
     cb0:	27a6073c 	addiu	$a2,$sp,1852
     cb4:	27a50414 	addiu	$a1,$sp,1044
     cb8:	00041080 	sll	$v0,$a0,0x2
     cbc:	00c21821 	addu	$v1,$a2,$v0
     cc0:	00a21021 	addu	$v0,$a1,$v0
     cc4:	8c420000 	lw	$v0,0($v0)
     cc8:	2484ffff 	addiu	$a0,$a0,-1
     ccc:	0481fffa 	bgez	$a0,cb8 <eras_dec_rs+0x564>
     cd0:	ac620000 	sw	$v0,0($v1)
     cd4:	afa00848 	sw	$zero,2120($sp)
     cd8:	24100001 	li	$s0,1
     cdc:	27b40738 	addiu	$s4,$sp,1848
     ce0:	241500ff 	li	$s5,255
     ce4:	3c020000 	lui	$v0,0x0
     ce8:	24560000 	addiu	$s6,$v0,0
     cec:	03c09025 	move	$s2,$s8
     cf0:	1a400012 	blez	$s2,d3c <eras_dec_rs+0x5e8>
     cf4:	24130001 	li	$s3,1
     cf8:	00121080 	sll	$v0,$s2,0x2
     cfc:	02828821 	addu	$s1,$s4,$v0
     d00:	8e220000 	lw	$v0,0($s1)
     d04:	00000000 	nop
     d08:	10550009 	beq	$v0,$s5,d30 <eras_dec_rs+0x5dc>
     d0c:	00000000 	nop
     d10:	0c00009d 	jal	274 <memcmp+0x40>
     d14:	02422021 	addu	$a0,$s2,$v0
     d18:	ae220000 	sw	$v0,0($s1)
     d1c:	00021080 	sll	$v0,$v0,0x2
     d20:	00561021 	addu	$v0,$v0,$s6
     d24:	8c420000 	lw	$v0,0($v0)
     d28:	00000000 	nop
     d2c:	02629826 	xor	$s3,$s3,$v0
     d30:	2652ffff 	addiu	$s2,$s2,-1
     d34:	1e40fff1 	bgtz	$s2,cfc <eras_dec_rs+0x5a8>
     d38:	00121080 	sll	$v0,$s2,0x2
     d3c:	00000000 	nop
     d40:	1660000b 	bnez	$s3,d70 <eras_dec_rs+0x61c>
     d44:	00000000 	nop
     d48:	8fa70848 	lw	$a3,2120($sp)
     d4c:	00000000 	nop
     d50:	00071880 	sll	$v1,$a3,0x2
     d54:	03a31021 	addu	$v0,$sp,$v1
     d58:	ac5006b8 	sw	$s0,1720($v0)
     d5c:	00401825 	move	$v1,$v0
     d60:	02b01023 	subu	$v0,$s5,$s0
     d64:	ac6207c0 	sw	$v0,1984($v1)
     d68:	24e70001 	addiu	$a3,$a3,1
     d6c:	afa70848 	sw	$a3,2120($sp)
     d70:	26100001 	addiu	$s0,$s0,1
     d74:	2a020100 	slti	$v0,$s0,256
     d78:	1440ffdc 	bnez	$v0,cec <eras_dec_rs+0x598>
     d7c:	00000000 	nop
     d80:	8fa70848 	lw	$a3,2120($sp)
     d84:	00000000 	nop
     d88:	13c70003 	beq	$s8,$a3,d98 <eras_dec_rs+0x644>
     d8c:	00008025 	move	$s0,$zero
     d90:	100000a8 	b	1034 <eras_dec_rs+0x8e0>
     d94:	2402ffff 	li	$v0,-1
     d98:	afa00844 	sw	$zero,2116($sp)
     d9c:	27b40498 	addiu	$s4,$sp,1176
     da0:	241500ff 	li	$s5,255
     da4:	27b30410 	addiu	$s3,$sp,1040
     da8:	3c020000 	lui	$v0,0x0
     dac:	24560000 	addiu	$s6,$v0,0
     db0:	00008825 	move	$s1,$zero
     db4:	03d0102a 	slt	$v0,$s8,$s0
     db8:	10400002 	beqz	$v0,dc4 <eras_dec_rs+0x670>
     dbc:	02009025 	move	$s2,$s0
     dc0:	03c09025 	move	$s2,$s8
     dc4:	06400017 	bltz	$s2,e24 <eras_dec_rs+0x6d0>
     dc8:	2642ffff 	addiu	$v0,$s2,-1
     dcc:	02021023 	subu	$v0,$s0,$v0
     dd0:	00021080 	sll	$v0,$v0,0x2
     dd4:	02821021 	addu	$v0,$s4,$v0
     dd8:	8c440000 	lw	$a0,0($v0)
     ddc:	00000000 	nop
     de0:	1095000d 	beq	$a0,$s5,e18 <eras_dec_rs+0x6c4>
     de4:	00121080 	sll	$v0,$s2,0x2
     de8:	02621021 	addu	$v0,$s3,$v0
     dec:	8c420000 	lw	$v0,0($v0)
     df0:	00000000 	nop
     df4:	10550008 	beq	$v0,$s5,e18 <eras_dec_rs+0x6c4>
     df8:	00000000 	nop
     dfc:	0c00009d 	jal	274 <memcmp+0x40>
     e00:	00822021 	addu	$a0,$a0,$v0
     e04:	00021080 	sll	$v0,$v0,0x2
     e08:	00561021 	addu	$v0,$v0,$s6
     e0c:	8c420000 	lw	$v0,0($v0)
     e10:	00000000 	nop
     e14:	02228826 	xor	$s1,$s1,$v0
     e18:	2652ffff 	addiu	$s2,$s2,-1
     e1c:	0641ffeb 	bgez	$s2,dcc <eras_dec_rs+0x678>
     e20:	2642ffff 	addiu	$v0,$s2,-1
     e24:	12200002 	beqz	$s1,e30 <eras_dec_rs+0x6dc>
     e28:	00101080 	sll	$v0,$s0,0x2
     e2c:	afb00844 	sw	$s0,2116($sp)
     e30:	03a22021 	addu	$a0,$sp,$v0
     e34:	3c030000 	lui	$v1,0x0
     e38:	24630000 	addiu	$v1,$v1,0
     e3c:	00111080 	sll	$v0,$s1,0x2
     e40:	00431021 	addu	$v0,$v0,$v1
     e44:	8c420000 	lw	$v0,0($v0)
     e48:	00000000 	nop
     e4c:	ac820630 	sw	$v0,1584($a0)
     e50:	26100001 	addiu	$s0,$s0,1
     e54:	2a020020 	slti	$v0,$s0,32
     e58:	1440ffd5 	bnez	$v0,db0 <eras_dec_rs+0x65c>
     e5c:	240200ff 	li	$v0,255
     e60:	afa206b0 	sw	$v0,1712($sp)
     e64:	8fa70848 	lw	$a3,2120($sp)
     e68:	00000000 	nop
     e6c:	24f2ffff 	addiu	$s2,$a3,-1
     e70:	0640006f 	bltz	$s2,1030 <eras_dec_rs+0x8dc>
     e74:	27a70630 	addiu	$a3,$sp,1584
     e78:	afa70850 	sw	$a3,2128($sp)
     e7c:	27a706b8 	addiu	$a3,$sp,1720
     e80:	afa70854 	sw	$a3,2132($sp)
     e84:	3c020000 	lui	$v0,0x0
     e88:	24570000 	addiu	$s7,$v0,0
     e8c:	8fb00844 	lw	$s0,2116($sp)
     e90:	00000000 	nop
     e94:	0600001b 	bltz	$s0,f04 <eras_dec_rs+0x7b0>
     e98:	00009825 	move	$s3,$zero
     e9c:	00121080 	sll	$v0,$s2,0x2
     ea0:	8fa70854 	lw	$a3,2132($sp)
     ea4:	00000000 	nop
     ea8:	00e28821 	addu	$s1,$a3,$v0
     eac:	00101080 	sll	$v0,$s0,0x2
     eb0:	8fa70850 	lw	$a3,2128($sp)
     eb4:	00000000 	nop
     eb8:	00e21021 	addu	$v0,$a3,$v0
     ebc:	8c430000 	lw	$v1,0($v0)
     ec0:	240700ff 	li	$a3,255
     ec4:	1067000c 	beq	$v1,$a3,ef8 <eras_dec_rs+0x7a4>
     ec8:	00000000 	nop
     ecc:	8e220000 	lw	$v0,0($s1)
     ed0:	00000000 	nop
     ed4:	02020018 	mult	$s0,$v0
     ed8:	00003812 	mflo	$a3
     edc:	0c00009d 	jal	274 <memcmp+0x40>
     ee0:	00e32021 	addu	$a0,$a3,$v1
     ee4:	00021080 	sll	$v0,$v0,0x2
     ee8:	00571021 	addu	$v0,$v0,$s7
     eec:	8c420000 	lw	$v0,0($v0)
     ef0:	00000000 	nop
     ef4:	02629826 	xor	$s3,$s3,$v0
     ef8:	2610ffff 	addiu	$s0,$s0,-1
     efc:	0601ffec 	bgez	$s0,eb0 <eras_dec_rs+0x75c>
     f00:	00101080 	sll	$v0,$s0,0x2
     f04:	0c00009d 	jal	274 <memcmp+0x40>
     f08:	240400ff 	li	$a0,255
     f0c:	00021080 	sll	$v0,$v0,0x2
     f10:	00571021 	addu	$v0,$v0,$s7
     f14:	8c560000 	lw	$s6,0($v0)
     f18:	03c01825 	move	$v1,$s8
     f1c:	28620020 	slti	$v0,$v1,32
     f20:	14400002 	bnez	$v0,f2c <eras_dec_rs+0x7d8>
     f24:	00008825 	move	$s1,$zero
     f28:	2403001f 	li	$v1,31
     f2c:	2402fffe 	li	$v0,-2
     f30:	00628024 	and	$s0,$v1,$v0
     f34:	0600001a 	bltz	$s0,fa0 <eras_dec_rs+0x84c>
     f38:	00121080 	sll	$v0,$s2,0x2
     f3c:	27b50410 	addiu	$s5,$sp,1040
     f40:	8fa70854 	lw	$a3,2132($sp)
     f44:	00000000 	nop
     f48:	00e2a021 	addu	$s4,$a3,$v0
     f4c:	26020001 	addiu	$v0,$s0,1
     f50:	00021080 	sll	$v0,$v0,0x2
     f54:	02a21021 	addu	$v0,$s5,$v0
     f58:	8c430000 	lw	$v1,0($v0)
     f5c:	240700ff 	li	$a3,255
     f60:	1067000c 	beq	$v1,$a3,f94 <eras_dec_rs+0x840>
     f64:	00000000 	nop
     f68:	8e820000 	lw	$v0,0($s4)
     f6c:	00000000 	nop
     f70:	02020018 	mult	$s0,$v0
     f74:	00003812 	mflo	$a3
     f78:	0c00009d 	jal	274 <memcmp+0x40>
     f7c:	00e32021 	addu	$a0,$a3,$v1
     f80:	00021080 	sll	$v0,$v0,0x2
     f84:	00571021 	addu	$v0,$v0,$s7
     f88:	8c420000 	lw	$v0,0($v0)
     f8c:	00000000 	nop
     f90:	02228826 	xor	$s1,$s1,$v0
     f94:	2610fffe 	addiu	$s0,$s0,-2
     f98:	0601ffed 	bgez	$s0,f50 <eras_dec_rs+0x7fc>
     f9c:	26020001 	addiu	$v0,$s0,1
     fa0:	12200024 	beqz	$s1,1034 <eras_dec_rs+0x8e0>
     fa4:	2402ffff 	li	$v0,-1
     fa8:	1260001e 	beqz	$s3,1024 <eras_dec_rs+0x8d0>
     fac:	3c040000 	lui	$a0,0x0
     fb0:	24840000 	addiu	$a0,$a0,0
     fb4:	00131880 	sll	$v1,$s3,0x2
     fb8:	00641821 	addu	$v1,$v1,$a0
     fbc:	00161080 	sll	$v0,$s6,0x2
     fc0:	00441021 	addu	$v0,$v0,$a0
     fc4:	8c630000 	lw	$v1,0($v1)
     fc8:	8c420000 	lw	$v0,0($v0)
     fcc:	00000000 	nop
     fd0:	00621821 	addu	$v1,$v1,$v0
     fd4:	00111080 	sll	$v0,$s1,0x2
     fd8:	00441021 	addu	$v0,$v0,$a0
     fdc:	8c440000 	lw	$a0,0($v0)
     fe0:	00000000 	nop
     fe4:	2484ff01 	addiu	$a0,$a0,-255
     fe8:	0c00009d 	jal	274 <memcmp+0x40>
     fec:	00642023 	subu	$a0,$v1,$a0
     ff0:	00121880 	sll	$v1,$s2,0x2
     ff4:	03a31821 	addu	$v1,$sp,$v1
     ff8:	8c6407c0 	lw	$a0,1984($v1)
     ffc:	8fa70880 	lw	$a3,2176($sp)
    1000:	00000000 	nop
    1004:	00e42021 	addu	$a0,$a3,$a0
    1008:	00021080 	sll	$v0,$v0,0x2
    100c:	00571021 	addu	$v0,$v0,$s7
    1010:	90830000 	lbu	$v1,0($a0)
    1014:	90420003 	lbu	$v0,3($v0)
    1018:	00000000 	nop
    101c:	00621826 	xor	$v1,$v1,$v0
    1020:	a0830000 	sb	$v1,0($a0)
    1024:	2652ffff 	addiu	$s2,$s2,-1
    1028:	0641ff98 	bgez	$s2,e8c <eras_dec_rs+0x738>
    102c:	00000000 	nop
    1030:	8fa20848 	lw	$v0,2120($sp)
    1034:	8fbf087c 	lw	$ra,2172($sp)
    1038:	8fbe0878 	lw	$s8,2168($sp)
    103c:	8fb70874 	lw	$s7,2164($sp)
    1040:	8fb60870 	lw	$s6,2160($sp)
    1044:	8fb5086c 	lw	$s5,2156($sp)
    1048:	8fb40868 	lw	$s4,2152($sp)
    104c:	8fb30864 	lw	$s3,2148($sp)
    1050:	8fb20860 	lw	$s2,2144($sp)
    1054:	8fb1085c 	lw	$s1,2140($sp)
    1058:	8fb00858 	lw	$s0,2136($sp)
    105c:	03e00008 	jr	$ra
    1060:	27bd0880 	addiu	$sp,$sp,2176

00001064 <fill_eras>:
    1064:	27bdfbd8 	addiu	$sp,$sp,-1064
    1068:	afbf0420 	sw	$ra,1056($sp)
    106c:	afb3041c 	sw	$s3,1052($sp)
    1070:	afb20418 	sw	$s2,1048($sp)
    1074:	afb10414 	sw	$s1,1044($sp)
    1078:	afb00410 	sw	$s0,1040($sp)
    107c:	00809825 	move	$s3,$a0
    1080:	00a09025 	move	$s2,$a1
    1084:	00002025 	move	$a0,$zero
    1088:	27a30010 	addiu	$v1,$sp,16
    108c:	00041080 	sll	$v0,$a0,0x2
    1090:	00621021 	addu	$v0,$v1,$v0
    1094:	ac440000 	sw	$a0,0($v0)
    1098:	24840001 	addiu	$a0,$a0,1
    109c:	288200ff 	slti	$v0,$a0,255
    10a0:	1440fffb 	bnez	$v0,1090 <fill_eras+0x2c>
    10a4:	00041080 	sll	$v0,$a0,0x2
    10a8:	241000fe 	li	$s0,254
    10ac:	27b10010 	addiu	$s1,$sp,16
    10b0:	0c000050 	jal	140 <random>
    10b4:	00000000 	nop
    10b8:	16000002 	bnez	$s0,10c4 <fill_eras+0x60>
    10bc:	0050001b 	divu	$zero,$v0,$s0
    10c0:	0007000d 	break	0x7
    10c4:	00002010 	mfhi	$a0
    10c8:	00042080 	sll	$a0,$a0,0x2
    10cc:	02242021 	addu	$a0,$s1,$a0
    10d0:	8c850000 	lw	$a1,0($a0)
    10d4:	00101880 	sll	$v1,$s0,0x2
    10d8:	02231821 	addu	$v1,$s1,$v1
    10dc:	8c620000 	lw	$v0,0($v1)
    10e0:	00000000 	nop
    10e4:	ac820000 	sw	$v0,0($a0)
    10e8:	2610ffff 	addiu	$s0,$s0,-1
    10ec:	1e00fff0 	bgtz	$s0,10b0 <fill_eras+0x4c>
    10f0:	ac650000 	sw	$a1,0($v1)
    10f4:	1a40000c 	blez	$s2,1128 <fill_eras+0xc4>
    10f8:	00002025 	move	$a0,$zero
    10fc:	27a50010 	addiu	$a1,$sp,16
    1100:	00041080 	sll	$v0,$a0,0x2
    1104:	00531821 	addu	$v1,$v0,$s3
    1108:	00a21021 	addu	$v0,$a1,$v0
    110c:	8c420000 	lw	$v0,0($v0)
    1110:	00000000 	nop
    1114:	ac620000 	sw	$v0,0($v1)
    1118:	24840001 	addiu	$a0,$a0,1
    111c:	0092102a 	slt	$v0,$a0,$s2
    1120:	1440fff8 	bnez	$v0,1104 <fill_eras+0xa0>
    1124:	00041080 	sll	$v0,$a0,0x2
    1128:	8fbf0420 	lw	$ra,1056($sp)
    112c:	8fb3041c 	lw	$s3,1052($sp)
    1130:	8fb20418 	lw	$s2,1048($sp)
    1134:	8fb10414 	lw	$s1,1044($sp)
    1138:	8fb00410 	lw	$s0,1040($sp)
    113c:	03e00008 	jr	$ra
    1140:	27bd0428 	addiu	$sp,$sp,1064

00001144 <randomnz>:
    1144:	27bdffe8 	addiu	$sp,$sp,-24
    1148:	afbf0010 	sw	$ra,16($sp)
    114c:	0c000050 	jal	140 <random>
    1150:	00000000 	nop
    1154:	304200ff 	andi	$v0,$v0,0xff
    1158:	1040fffc 	beqz	$v0,114c <randomnz+0x8>
    115c:	00000000 	nop
    1160:	8fbf0010 	lw	$ra,16($sp)
    1164:	00000000 	nop
    1168:	03e00008 	jr	$ra
    116c:	27bd0018 	addiu	$sp,$sp,24

00001170 <main2>:
    1170:	27bdffb8 	addiu	$sp,$sp,-72
    1174:	afbf0044 	sw	$ra,68($sp)
    1178:	afbe0040 	sw	$s8,64($sp)
    117c:	afb7003c 	sw	$s7,60($sp)
    1180:	afb60038 	sw	$s6,56($sp)
    1184:	afb50034 	sw	$s5,52($sp)
    1188:	afb40030 	sw	$s4,48($sp)
    118c:	afb3002c 	sw	$s3,44($sp)
    1190:	afb20028 	sw	$s2,40($sp)
    1194:	afb10024 	sw	$s1,36($sp)
    1198:	afb00020 	sw	$s0,32($sp)
    119c:	2416000b 	li	$s6,11
    11a0:	2413000a 	li	$s3,10
    11a4:	3c040000 	lui	$a0,0x0
    11a8:	0c000023 	jal	8c <print_uart>
    11ac:	24840000 	addiu	$a0,$a0,0
    11b0:	3c040000 	lui	$a0,0x0
    11b4:	0c000023 	jal	8c <print_uart>
    11b8:	2484002c 	addiu	$a0,$a0,44
    11bc:	0c000060 	jal	180 <print_num>
    11c0:	240400ff 	li	$a0,255
    11c4:	3c040000 	lui	$a0,0x0
    11c8:	0c000023 	jal	8c <print_uart>
    11cc:	24840044 	addiu	$a0,$a0,68
    11d0:	0c000060 	jal	180 <print_num>
    11d4:	240400df 	li	$a0,223
    11d8:	3c040000 	lui	$a0,0x0
    11dc:	0c000023 	jal	8c <print_uart>
    11e0:	24840048 	addiu	$a0,$a0,72
    11e4:	0c000060 	jal	180 <print_num>
    11e8:	24040100 	li	$a0,256
    11ec:	3c040000 	lui	$a0,0x0
    11f0:	0c000023 	jal	8c <print_uart>
    11f4:	24840054 	addiu	$a0,$a0,84
    11f8:	3c040000 	lui	$a0,0x0
    11fc:	0c000023 	jal	8c <print_uart>
    1200:	24840058 	addiu	$a0,$a0,88
    1204:	0c000060 	jal	180 <print_num>
    1208:	00002025 	move	$a0,$zero
    120c:	3c100000 	lui	$s0,0x0
    1210:	0c000023 	jal	8c <print_uart>
    1214:	2604005c 	addiu	$a0,$s0,92
    1218:	3c040000 	lui	$a0,0x0
    121c:	0c000023 	jal	8c <print_uart>
    1220:	24840060 	addiu	$a0,$a0,96
    1224:	0c000060 	jal	180 <print_num>
    1228:	02602025 	move	$a0,$s3
    122c:	3c040000 	lui	$a0,0x0
    1230:	0c000023 	jal	8c <print_uart>
    1234:	24840070 	addiu	$a0,$a0,112
    1238:	0c000060 	jal	180 <print_num>
    123c:	02c02025 	move	$a0,$s6
    1240:	0c000023 	jal	8c <print_uart>
    1244:	2604005c 	addiu	$a0,$s0,92
    1248:	0c0000aa 	jal	2a8 <init_rs>
    124c:	0000a025 	move	$s4,$zero
    1250:	3c040000 	lui	$a0,0x0
    1254:	0c000023 	jal	8c <print_uart>
    1258:	248400c8 	addiu	$a0,$a0,200
    125c:	afa00010 	sw	$zero,16($sp)
    1260:	24070078 	li	$a3,120
    1264:	10e0009b 	beqz	$a3,14d4 <main2+0x364>
    1268:	afa00014 	sw	$zero,20($sp)
    126c:	0200b825 	move	$s7,$s0
    1270:	3c020000 	lui	$v0,0x0
    1274:	245e0000 	addiu	$s8,$v0,0
    1278:	24070001 	li	$a3,1
    127c:	0007382b 	sltu	$a3,$zero,$a3
    1280:	afa70018 	sw	$a3,24($sp)
    1284:	3c020000 	lui	$v0,0x0
    1288:	24550000 	addiu	$s5,$v0,0
    128c:	24070001 	li	$a3,1
    1290:	10e00005 	beqz	$a3,12a8 <main2+0x138>
    1294:	3c040000 	lui	$a0,0x0
    1298:	0c000023 	jal	8c <print_uart>
    129c:	248400d8 	addiu	$a0,$a0,216
    12a0:	0c000060 	jal	180 <print_num>
    12a4:	02802025 	move	$a0,$s4
    12a8:	0c000023 	jal	8c <print_uart>
    12ac:	26e4005c 	addiu	$a0,$s7,92
    12b0:	00008025 	move	$s0,$zero
    12b4:	0c000050 	jal	140 <random>
    12b8:	00000000 	nop
    12bc:	021e1821 	addu	$v1,$s0,$s8
    12c0:	a0620000 	sb	$v0,0($v1)
    12c4:	26100001 	addiu	$s0,$s0,1
    12c8:	2a0200df 	slti	$v0,$s0,223
    12cc:	1440fff9 	bnez	$v0,12b4 <main2+0x144>
    12d0:	03c02025 	move	$a0,$s8
    12d4:	0c000178 	jal	5e0 <encode_rs>
    12d8:	27c500df 	addiu	$a1,$s8,223
    12dc:	3c070000 	lui	$a3,0x0
    12e0:	24e40000 	addiu	$a0,$a3,0
    12e4:	0c000419 	jal	1064 <fill_eras>
    12e8:	02762821 	addu	$a1,$s3,$s6
    12ec:	0013102b 	sltu	$v0,$zero,$s3
    12f0:	8fa70018 	lw	$a3,24($sp)
    12f4:	00000000 	nop
    12f8:	00e21024 	and	$v0,$a3,$v0
    12fc:	10400016 	beqz	$v0,1358 <main2+0x1e8>
    1300:	0016102b 	sltu	$v0,$zero,$s6
    1304:	3c040000 	lui	$a0,0x0
    1308:	0c000023 	jal	8c <print_uart>
    130c:	248400e4 	addiu	$a0,$a0,228
    1310:	1260000c 	beqz	$s3,1344 <main2+0x1d4>
    1314:	00008025 	move	$s0,$zero
    1318:	3c070000 	lui	$a3,0x0
    131c:	0c000023 	jal	8c <print_uart>
    1320:	24e40044 	addiu	$a0,$a3,68
    1324:	00101080 	sll	$v0,$s0,0x2
    1328:	00551021 	addu	$v0,$v0,$s5
    132c:	8c440000 	lw	$a0,0($v0)
    1330:	0c000060 	jal	180 <print_num>
    1334:	26100001 	addiu	$s0,$s0,1
    1338:	0213102a 	slt	$v0,$s0,$s3
    133c:	1440fff7 	bnez	$v0,131c <main2+0x1ac>
    1340:	3c070000 	lui	$a3,0x0
    1344:	0c000023 	jal	8c <print_uart>
    1348:	26e4005c 	addiu	$a0,$s7,92
    134c:	0016102b 	sltu	$v0,$zero,$s6
    1350:	8fa70018 	lw	$a3,24($sp)
    1354:	00000000 	nop
    1358:	00e21024 	and	$v0,$a3,$v0
    135c:	10400015 	beqz	$v0,13b4 <main2+0x244>
    1360:	3c040000 	lui	$a0,0x0
    1364:	0c000023 	jal	8c <print_uart>
    1368:	248400f0 	addiu	$a0,$a0,240
    136c:	02608025 	move	$s0,$s3
    1370:	02161021 	addu	$v0,$s0,$s6
    1374:	0202102a 	slt	$v0,$s0,$v0
    1378:	1040000c 	beqz	$v0,13ac <main2+0x23c>
    137c:	3c070000 	lui	$a3,0x0
    1380:	02768821 	addu	$s1,$s3,$s6
    1384:	0c000023 	jal	8c <print_uart>
    1388:	24e40044 	addiu	$a0,$a3,68
    138c:	00101080 	sll	$v0,$s0,0x2
    1390:	00551021 	addu	$v0,$v0,$s5
    1394:	8c440000 	lw	$a0,0($v0)
    1398:	0c000060 	jal	180 <print_num>
    139c:	26100001 	addiu	$s0,$s0,1
    13a0:	0211102a 	slt	$v0,$s0,$s1
    13a4:	1440fff7 	bnez	$v0,1384 <main2+0x214>
    13a8:	3c070000 	lui	$a3,0x0
    13ac:	0c000023 	jal	8c <print_uart>
    13b0:	26e4005c 	addiu	$a0,$s7,92
    13b4:	3c070000 	lui	$a3,0x0
    13b8:	24e40000 	addiu	$a0,$a3,0
    13bc:	3c070000 	lui	$a3,0x0
    13c0:	24e50000 	addiu	$a1,$a3,0
    13c4:	0c000081 	jal	204 <memcpy>
    13c8:	240600ff 	li	$a2,255
    13cc:	02761021 	addu	$v0,$s3,$s6
    13d0:	10400012 	beqz	$v0,141c <main2+0x2ac>
    13d4:	00008025 	move	$s0,$zero
    13d8:	3c020000 	lui	$v0,0x0
    13dc:	24520000 	addiu	$s2,$v0,0
    13e0:	02768821 	addu	$s1,$s3,$s6
    13e4:	0c000451 	jal	1144 <randomnz>
    13e8:	00000000 	nop
    13ec:	00101880 	sll	$v1,$s0,0x2
    13f0:	00751821 	addu	$v1,$v1,$s5
    13f4:	8c640000 	lw	$a0,0($v1)
    13f8:	00000000 	nop
    13fc:	00922021 	addu	$a0,$a0,$s2
    1400:	90830000 	lbu	$v1,0($a0)
    1404:	00000000 	nop
    1408:	00621826 	xor	$v1,$v1,$v0
    140c:	26100001 	addiu	$s0,$s0,1
    1410:	0211102a 	slt	$v0,$s0,$s1
    1414:	1440fff3 	bnez	$v0,13e4 <main2+0x274>
    1418:	a0830000 	sb	$v1,0($a0)
    141c:	3c070000 	lui	$a3,0x0
    1420:	24e40000 	addiu	$a0,$a3,0
    1424:	3c070000 	lui	$a3,0x0
    1428:	24e50000 	addiu	$a1,$a3,0
    142c:	0c0001d5 	jal	754 <eras_dec_rs>
    1430:	02603025 	move	$a2,$s3
    1434:	24070001 	li	$a3,1
    1438:	10e00008 	beqz	$a3,145c <main2+0x2ec>
    143c:	00408025 	move	$s0,$v0
    1440:	3c040000 	lui	$a0,0x0
    1444:	0c000023 	jal	8c <print_uart>
    1448:	248400fc 	addiu	$a0,$a0,252
    144c:	0c000060 	jal	180 <print_num>
    1450:	02002025 	move	$a0,$s0
    1454:	0c000023 	jal	8c <print_uart>
    1458:	26e4005c 	addiu	$a0,$s7,92
    145c:	2402ffff 	li	$v0,-1
    1460:	16020008 	bne	$s0,$v0,1484 <main2+0x314>
    1464:	3c070000 	lui	$a3,0x0
    1468:	8fa70010 	lw	$a3,16($sp)
    146c:	00000000 	nop
    1470:	24e70001 	addiu	$a3,$a3,1
    1474:	afa70010 	sw	$a3,16($sp)
    1478:	3c040000 	lui	$a0,0x0
    147c:	10000010 	b	14c0 <main2+0x350>
    1480:	24840118 	addiu	$a0,$a0,280
    1484:	24e40000 	addiu	$a0,$a3,0
    1488:	3c070000 	lui	$a3,0x0
    148c:	24e50000 	addiu	$a1,$a3,0
    1490:	0c00008d 	jal	234 <memcmp>
    1494:	240600ff 	li	$a2,255
    1498:	10400007 	beqz	$v0,14b8 <main2+0x348>
    149c:	3c040000 	lui	$a0,0x0
    14a0:	8fa70014 	lw	$a3,20($sp)
    14a4:	00000000 	nop
    14a8:	24e70001 	addiu	$a3,$a3,1
    14ac:	afa70014 	sw	$a3,20($sp)
    14b0:	10000003 	b	14c0 <main2+0x350>
    14b4:	24840138 	addiu	$a0,$a0,312
    14b8:	3c040000 	lui	$a0,0x0
    14bc:	24840158 	addiu	$a0,$a0,344
    14c0:	0c000023 	jal	8c <print_uart>
    14c4:	26940001 	addiu	$s4,$s4,1
    14c8:	2a820078 	slti	$v0,$s4,120
    14cc:	1440ff70 	bnez	$v0,1290 <main2+0x120>
    14d0:	24070001 	li	$a3,1
    14d4:	3c040000 	lui	$a0,0x0
    14d8:	0c000023 	jal	8c <print_uart>
    14dc:	24840170 	addiu	$a0,$a0,368
    14e0:	0c000060 	jal	180 <print_num>
    14e4:	24040078 	li	$a0,120
    14e8:	3c040000 	lui	$a0,0x0
    14ec:	0c000023 	jal	8c <print_uart>
    14f0:	24840184 	addiu	$a0,$a0,388
    14f4:	8fa40010 	lw	$a0,16($sp)
    14f8:	0c000060 	jal	180 <print_num>
    14fc:	00000000 	nop
    1500:	3c040000 	lui	$a0,0x0
    1504:	0c000023 	jal	8c <print_uart>
    1508:	2484019c 	addiu	$a0,$a0,412
    150c:	8fa40014 	lw	$a0,20($sp)
    1510:	0c000060 	jal	180 <print_num>
    1514:	00000000 	nop
    1518:	3c040000 	lui	$a0,0x0
    151c:	0c000023 	jal	8c <print_uart>
    1520:	2484005c 	addiu	$a0,$a0,92
    1524:	3c040000 	lui	$a0,0x0
    1528:	0c000023 	jal	8c <print_uart>
    152c:	248401b8 	addiu	$a0,$a0,440
    1530:	00001025 	move	$v0,$zero
    1534:	8fbf0044 	lw	$ra,68($sp)
    1538:	8fbe0040 	lw	$s8,64($sp)
    153c:	8fb7003c 	lw	$s7,60($sp)
    1540:	8fb60038 	lw	$s6,56($sp)
    1544:	8fb50034 	lw	$s5,52($sp)
    1548:	8fb40030 	lw	$s4,48($sp)
    154c:	8fb3002c 	lw	$s3,44($sp)
    1550:	8fb20028 	lw	$s2,40($sp)
    1554:	8fb10024 	lw	$s1,36($sp)
    1558:	8fb00020 	lw	$s0,32($sp)
    155c:	03e00008 	jr	$ra
    1560:	27bd0048 	addiu	$sp,$sp,72
Disassembly of section .rodata:

00000000 <.rodata>:
   0:	49742074 	0x49742074
   4:	616b6573 	0x616b6573
   8:	20766572 	addi	$s6,$v1,25970
   c:	79206c6f 	0x79206c6f
  10:	6e672074 	0x6e672074
  14:	696d6520 	0x696d6520
  18:	666f7220 	0x666f7220
  1c:	52544c20 	0x52544c20
  20:	53696d75 	0x53696d75
  24:	6c617469 	0x6c617469
  28:	6f6e2e00 	0x6f6e2e00
  2c:	52656564 	0x52656564
  30:	2d536f6c 	sltiu	$s3,$t2,28524
  34:	6f6d6f6e 	0x6f6d6f6e
  38:	20636f64 	addi	$v1,$v1,28516
  3c:	65206973 	0x65206973
  40:	20000000 	addi	$zero,$zero,0
  44:	20000000 	addi	$zero,$zero,0
  48:	6f766572 	0x6f766572
  4c:	20474628 	addi	$a3,$v0,17960
  50:	00000000 	nop
  54:	290a0000 	slti	$t2,$t0,0
  58:	693d0000 	0x693d0000
  5c:	0a000000 	j	8000000 <main2+0x7ffee90>
  60:	74657374 	jalx	195cdd0 <main2+0x195bc60>
  64:	20657261 	addi	$a1,$v1,29281
  68:	73757265 	0x73757265
  6c:	733a2000 	0x733a2000
  70:	6572726f 	0x6572726f
  74:	72732000 	0x72732000
  78:	5761726e 	0x5761726e
  7c:	696e673a 	0x696e673a
  80:	20000000 	addi	$zero,$zero,0
  84:	6572726f 	0x6572726f
  88:	72732061 	0x72732061
  8c:	6e642000 	0x6e642000
  90:	65726173 	0x65726173
  94:	75726573 	jalx	5c995cc <main2+0x5c9845c>
  98:	20657863 	addi	$a1,$v1,30819
  9c:	65656473 	0x65656473
  a0:	20746865 	addi	$s4,$v1,26725
  a4:	20636f72 	addi	$v1,$v1,28530
  a8:	72656374 	0x72656374
  ac:	696f6e20 	0x696f6e20
  b0:	6162696c 	0x6162696c
  b4:	69747920 	0x69747920
  b8:	6f662074 	0x6f662074
  bc:	68652063 	0x68652063
  c0:	6f64650a 	0x6f64650a
  c4:	00000000 	nop
  c8:	496e6974 	0x496e6974
  cc:	5f525320 	0x5f525320
  d0:	446f6e65 	0x446f6e65
  d4:	00000000 	nop
  d8:	0a205472 	j	88151c8 <main2+0x8814058>
  dc:	69616c20 	0x69616c20
  e0:	00000000 	nop
  e4:	20657261 	addi	$a1,$v1,29281
  e8:	73696e67 	0x73696e67
  ec:	3a000000 	xori	$zero,$s0,0x0
  f0:	20657272 	addi	$a1,$v1,29298
  f4:	6f72696e 	0x6f72696e
  f8:	673a0000 	0x673a0000
  fc:	65727273 	0x65727273
 100:	202b2065 	addi	$t3,$at,8293
 104:	72617375 	0x72617375
 108:	72657320 	0x72657320
 10c:	636f7272 	0x636f7272
 110:	65637465 	0x65637465
 114:	643a2000 	0x643a2000
 118:	52532064 	0x52532064
 11c:	65636f64 	0x65636f64
 120:	65722064 	0x65722064
 124:	65746563 	0x65746563
 128:	74656420 	jalx	1959080 <main2+0x1957f10>
 12c:	6661696c 	0x6661696c
 130:	7572650a 	jalx	5c99428 <main2+0x5c982b8>
 134:	00000000 	nop
 138:	20556e64 	addi	$s5,$v0,28260
 13c:	65746563 	0x65746563
 140:	74656420 	jalx	1959080 <main2+0x1957f10>
 144:	6465636f 	0x6465636f
 148:	64696e67 	0x64696e67
 14c:	20666169 	addi	$a2,$v1,24937
 150:	6c757265 	0x6c757265
 154:	210a0000 	addi	$t2,$t0,0
 158:	436f6d70 	c0	0x16f6d70
 15c:	61726520 	0x61726520
 160:	446f6e65 	0x446f6e65
 164:	2e205061 	sltiu	$zero,$s1,20577
 168:	73736564 	0x73736564
 16c:	2e0a0000 	sltiu	$t2,$s0,0
 170:	0a0a0a20 	j	8282880 <main2+0x8281710>
 174:	546f7461 	0x546f7461
 178:	6c205472 	0x6c205472
 17c:	69616c73 	0x69616c73
 180:	3a200000 	xori	$zero,$s1,0x0
 184:	20646563 	addi	$a0,$v1,25955
 188:	6f64696e 	0x6f64696e
 18c:	67206661 	0x67206661
 190:	696c7572 	0x696c7572
 194:	65733a20 	0x65733a20
 198:	00000000 	nop
 19c:	206e6f74 	addi	$t6,$v1,28532
 1a0:	20646574 	addi	$a0,$v1,25972
 1a4:	65637465 	0x65637465
 1a8:	64206279 	0x64206279
 1ac:	20646563 	addi	$a0,$v1,25955
 1b0:	6f646572 	0x6f646572
 1b4:	3a200000 	xori	$zero,$s1,0x0
 1b8:	2466696e 	addiu	$a2,$v1,26990
 1bc:	69736800 	0x69736800
Disassembly of section .data:

00000000 <Pp>:
   0:	00000001 	0x1
   4:	00000000 	nop
   8:	00000001 	0x1
   c:	00000001 	0x1
  10:	00000001 	0x1
	...
  20:	00000001 	0x1
Disassembly of section .sdata:

00000000 <.sdata>:
   0:	00000001 	0x1
