
test.exe:     file format elf32-bigmips

Disassembly of section .text:

00000000 <entry>:
   0:	3c1c0000 	lui	$gp,0x0
   4:	379c0000 	ori	$gp,$gp,0x0
   8:	3c040000 	lui	$a0,0x0
   c:	34840000 	ori	$a0,$a0,0x0
  10:	3c050000 	lui	$a1,0x0
  14:	34a50000 	ori	$a1,$a1,0x0
  18:	3c1d0000 	lui	$sp,0x0
  1c:	37bdfff0 	ori	$sp,$sp,0xfff0
  20:	34210400 	ori	$at,$at,0x400
  24:	40816000 	mtc0	$at,$status
  28:	3c140100 	lui	$s4,0x100
  2c:	3415000a 	li	$s5,0xa
  30:	34160058 	li	$s6,0x58
  34:	3417000d 	li	$s7,0xd
  38:	34180f80 	li	$t8,0xf80
  3c:	34020041 	li	$v0,0x41
  40:	a2820000 	sb	$v0,0($s4)
  44:	34020072 	li	$v0,0x72
  48:	a2820000 	sb	$v0,0($s4)
  4c:	34020069 	li	$v0,0x69
  50:	a2820000 	sb	$v0,0($s4)
  54:	34020074 	li	$v0,0x74
  58:	a2820000 	sb	$v0,0($s4)
  5c:	34020068 	li	$v0,0x68
  60:	a2820000 	sb	$v0,0($s4)
  64:	a2970000 	sb	$s7,0($s4)
  68:	a2950000 	sb	$s5,0($s4)
  6c:	34020061 	li	$v0,0x61
  70:	a2820000 	sb	$v0,0($s4)
  74:	3402003a 	li	$v0,0x3a
  78:	a2820000 	sb	$v0,0($s4)
  7c:	34030005 	li	$v1,0x5
  80:	3404003c 	li	$a0,0x3c
  84:	00641020 	add	$v0,$v1,$a0
  88:	a2820000 	sb	$v0,0($s4)
  8c:	a2970000 	sb	$s7,0($s4)
  90:	34020062 	li	$v0,0x62
  94:	a2820000 	sb	$v0,0($s4)
  98:	3402003a 	li	$v0,0x3a
  9c:	a2820000 	sb	$v0,0($s4)
  a0:	3404003c 	li	$a0,0x3c
  a4:	20820005 	addi	$v0,$a0,5
  a8:	a2820000 	sb	$v0,0($s4)
  ac:	a2970000 	sb	$s7,0($s4)
  b0:	34020063 	li	$v0,0x63
  b4:	a2820000 	sb	$v0,0($s4)
  b8:	3402003a 	li	$v0,0x3a
  bc:	a2820000 	sb	$v0,0($s4)
  c0:	34040032 	li	$a0,0x32
  c4:	2485000f 	addiu	$a1,$a0,15
  c8:	a2850000 	sb	$a1,0($s4)
  cc:	a2970000 	sb	$s7,0($s4)
  d0:	34020064 	li	$v0,0x64
  d4:	a2820000 	sb	$v0,0($s4)
  d8:	3402003a 	li	$v0,0x3a
  dc:	a2820000 	sb	$v0,0($s4)
  e0:	34030005 	li	$v1,0x5
  e4:	3404003c 	li	$a0,0x3c
  e8:	00641021 	addu	$v0,$v1,$a0
  ec:	a2820000 	sb	$v0,0($s4)
  f0:	a2970000 	sb	$s7,0($s4)
  f4:	34020065 	li	$v0,0x65
  f8:	a2820000 	sb	$v0,0($s4)
  fc:	3402003a 	li	$v0,0x3a
 100:	a2820000 	sb	$v0,0($s4)
 104:	34021dde 	li	$v0,0x1dde
 108:	34030075 	li	$v1,0x75
 10c:	14600002 	bnez	$v1,118 <entry+0x118>
 110:	0043001a 	div	$zero,$v0,$v1
 114:	0007000d 	break	0x7
 118:	2401ffff 	li	$at,-1
 11c:	14610004 	bne	$v1,$at,130 <entry+0x130>
 120:	3c018000 	lui	$at,0x8000
 124:	14410002 	bne	$v0,$at,130 <entry+0x130>
 128:	00000000 	nop
 12c:	0006000d 	break	0x6
 130:	00001012 	mflo	$v0
 134:	00000000 	nop
 138:	00002012 	mflo	$a0
 13c:	a2840000 	sb	$a0,0($s4)
 140:	00002010 	mfhi	$a0
 144:	20840019 	addi	$a0,$a0,25
 148:	a2840000 	sb	$a0,0($s4)
 14c:	2402fb07 	li	$v0,-1273
 150:	34030013 	li	$v1,0x13
 154:	14600002 	bnez	$v1,160 <entry+0x160>
 158:	0043001a 	div	$zero,$v0,$v1
 15c:	0007000d 	break	0x7
 160:	2401ffff 	li	$at,-1
 164:	14610004 	bne	$v1,$at,178 <entry+0x178>
 168:	3c018000 	lui	$at,0x8000
 16c:	14410002 	bne	$v0,$at,178 <entry+0x178>
 170:	00000000 	nop
 174:	0006000d 	break	0x6
 178:	00001012 	mflo	$v0
 17c:	00000000 	nop
 180:	00002012 	mflo	$a0
 184:	00042022 	neg	$a0,$a0
 188:	a2840000 	sb	$a0,0($s4)
 18c:	3402061c 	li	$v0,0x61c
 190:	2403ffe9 	li	$v1,-23
 194:	14600002 	bnez	$v1,1a0 <entry+0x1a0>
 198:	0043001a 	div	$zero,$v0,$v1
 19c:	0007000d 	break	0x7
 1a0:	2401ffff 	li	$at,-1
 1a4:	14610004 	bne	$v1,$at,1b8 <entry+0x1b8>
 1a8:	3c018000 	lui	$at,0x8000
 1ac:	14410002 	bne	$v0,$at,1b8 <entry+0x1b8>
 1b0:	00000000 	nop
 1b4:	0006000d 	break	0x6
 1b8:	00001012 	mflo	$v0
 1bc:	00000000 	nop
 1c0:	00002012 	mflo	$a0
 1c4:	00042022 	neg	$a0,$a0
 1c8:	a2840000 	sb	$a0,0($s4)
 1cc:	2402fc7f 	li	$v0,-897
 1d0:	2403fff3 	li	$v1,-13
 1d4:	14600002 	bnez	$v1,1e0 <entry+0x1e0>
 1d8:	0043001a 	div	$zero,$v0,$v1
 1dc:	0007000d 	break	0x7
 1e0:	2401ffff 	li	$at,-1
 1e4:	14610004 	bne	$v1,$at,1f8 <entry+0x1f8>
 1e8:	3c018000 	lui	$at,0x8000
 1ec:	14410002 	bne	$v0,$at,1f8 <entry+0x1f8>
 1f0:	00000000 	nop
 1f4:	0006000d 	break	0x6
 1f8:	00001012 	mflo	$v0
 1fc:	00002012 	mflo	$a0
 200:	a2840000 	sb	$a0,0($s4)
 204:	a2970000 	sb	$s7,0($s4)
 208:	34020066 	li	$v0,0x66
 20c:	a2820000 	sb	$v0,0($s4)
 210:	3402003a 	li	$v0,0x3a
 214:	a2820000 	sb	$v0,0($s4)
 218:	3402034d 	li	$v0,0x34d
 21c:	3403000d 	li	$v1,0xd
 220:	14600002 	bnez	$v1,22c <entry+0x22c>
 224:	0043001b 	divu	$zero,$v0,$v1
 228:	0007000d 	break	0x7
 22c:	00001012 	mflo	$v0
 230:	00000000 	nop
 234:	00002012 	mflo	$a0
 238:	a2840000 	sb	$a0,0($s4)
 23c:	a2970000 	sb	$s7,0($s4)
 240:	34020067 	li	$v0,0x67
 244:	a2820000 	sb	$v0,0($s4)
 248:	3402003a 	li	$v0,0x3a
 24c:	a2820000 	sb	$v0,0($s4)
 250:	34020005 	li	$v0,0x5
 254:	3403000d 	li	$v1,0xd
 258:	00430018 	mult	$v0,$v1
 25c:	00002012 	mflo	$a0
 260:	a2840000 	sb	$a0,0($s4)
 264:	2402fffb 	li	$v0,-5
 268:	3403000d 	li	$v1,0xd
 26c:	00430018 	mult	$v0,$v1
 270:	00002810 	mfhi	$a1
 274:	00002012 	mflo	$a0
 278:	00042022 	neg	$a0,$a0
 27c:	00852021 	addu	$a0,$a0,$a1
 280:	20840002 	addi	$a0,$a0,2
 284:	a2840000 	sb	$a0,0($s4)
 288:	34020005 	li	$v0,0x5
 28c:	2403fff3 	li	$v1,-13
 290:	00430018 	mult	$v0,$v1
 294:	00002810 	mfhi	$a1
 298:	00002012 	mflo	$a0
 29c:	00042022 	neg	$a0,$a0
 2a0:	00852021 	addu	$a0,$a0,$a1
 2a4:	20840003 	addi	$a0,$a0,3
 2a8:	a2840000 	sb	$a0,0($s4)
 2ac:	2402fffb 	li	$v0,-5
 2b0:	2403fff3 	li	$v1,-13
 2b4:	00430018 	mult	$v0,$v1
 2b8:	00002810 	mfhi	$a1
 2bc:	00002012 	mflo	$a0
 2c0:	00852021 	addu	$a0,$a0,$a1
 2c4:	20840003 	addi	$a0,$a0,3
 2c8:	a2840000 	sb	$a0,0($s4)
 2cc:	3c04fe98 	lui	$a0,0xfe98
 2d0:	348462e5 	ori	$a0,$a0,0x62e5
 2d4:	3c050006 	lui	$a1,0x6
 2d8:	34a58db8 	ori	$a1,$a1,0x8db8
 2dc:	00850018 	mult	$a0,$a1
 2e0:	00003010 	mfhi	$a2
 2e4:	24c7097a 	addiu	$a3,$a2,2426
 2e8:	a2870000 	sb	$a3,0($s4)
 2ec:	a2970000 	sb	$s7,0($s4)
 2f0:	34020068 	li	$v0,0x68
 2f4:	a2820000 	sb	$v0,0($s4)
 2f8:	3402003a 	li	$v0,0x3a
 2fc:	a2820000 	sb	$v0,0($s4)
 300:	34020005 	li	$v0,0x5
 304:	3403000d 	li	$v1,0xd
 308:	00430019 	multu	$v0,$v1
 30c:	00002012 	mflo	$a0
 310:	a2840000 	sb	$a0,0($s4)
 314:	a2970000 	sb	$s7,0($s4)
 318:	34020069 	li	$v0,0x69
 31c:	a2820000 	sb	$v0,0($s4)
 320:	3402003a 	li	$v0,0x3a
 324:	a2820000 	sb	$v0,0($s4)
 328:	3402000a 	li	$v0,0xa
 32c:	3403000c 	li	$v1,0xc
 330:	0043202a 	slt	$a0,$v0,$v1
 334:	20850040 	addi	$a1,$a0,64
 338:	a2850000 	sb	$a1,0($s4)
 33c:	0062202a 	slt	$a0,$v1,$v0
 340:	20850042 	addi	$a1,$a0,66
 344:	a2850000 	sb	$a1,0($s4)
 348:	2402fff0 	li	$v0,-16
 34c:	0043202a 	slt	$a0,$v0,$v1
 350:	20850042 	addi	$a1,$a0,66
 354:	a2850000 	sb	$a1,0($s4)
 358:	0062202a 	slt	$a0,$v1,$v0
 35c:	20850044 	addi	$a1,$a0,68
 360:	a2850000 	sb	$a1,0($s4)
 364:	2403ffff 	li	$v1,-1
 368:	0043202a 	slt	$a0,$v0,$v1
 36c:	20850044 	addi	$a1,$a0,68
 370:	a2850000 	sb	$a1,0($s4)
 374:	0062202a 	slt	$a0,$v1,$v0
 378:	20850046 	addi	$a1,$a0,70
 37c:	a2850000 	sb	$a1,0($s4)
 380:	a2970000 	sb	$s7,0($s4)
 384:	3402006a 	li	$v0,0x6a
 388:	a2820000 	sb	$v0,0($s4)
 38c:	3402003a 	li	$v0,0x3a
 390:	a2820000 	sb	$v0,0($s4)
 394:	3402000a 	li	$v0,0xa
 398:	2844000c 	slti	$a0,$v0,12
 39c:	20850040 	addi	$a1,$a0,64
 3a0:	a2850000 	sb	$a1,0($s4)
 3a4:	28440008 	slti	$a0,$v0,8
 3a8:	20850042 	addi	$a1,$a0,66
 3ac:	a2850000 	sb	$a1,0($s4)
 3b0:	a2970000 	sb	$s7,0($s4)
 3b4:	3402006b 	li	$v0,0x6b
 3b8:	a2820000 	sb	$v0,0($s4)
 3bc:	3402003a 	li	$v0,0x3a
 3c0:	a2820000 	sb	$v0,0($s4)
 3c4:	3402000a 	li	$v0,0xa
 3c8:	2c44000c 	sltiu	$a0,$v0,12
 3cc:	20850040 	addi	$a1,$a0,64
 3d0:	a2850000 	sb	$a1,0($s4)
 3d4:	2c440008 	sltiu	$a0,$v0,8
 3d8:	20850042 	addi	$a1,$a0,66
 3dc:	a2850000 	sb	$a1,0($s4)
 3e0:	a2970000 	sb	$s7,0($s4)
 3e4:	3402006c 	li	$v0,0x6c
 3e8:	a2820000 	sb	$v0,0($s4)
 3ec:	3402003a 	li	$v0,0x3a
 3f0:	a2820000 	sb	$v0,0($s4)
 3f4:	3402000a 	li	$v0,0xa
 3f8:	3403000c 	li	$v1,0xc
 3fc:	0043202a 	slt	$a0,$v0,$v1
 400:	20850040 	addi	$a1,$a0,64
 404:	a2850000 	sb	$a1,0($s4)
 408:	0062202b 	sltu	$a0,$v1,$v0
 40c:	20850042 	addi	$a1,$a0,66
 410:	a2850000 	sb	$a1,0($s4)
 414:	a2970000 	sb	$s7,0($s4)
 418:	3402006d 	li	$v0,0x6d
 41c:	a2820000 	sb	$v0,0($s4)
 420:	3402003a 	li	$v0,0x3a
 424:	a2820000 	sb	$v0,0($s4)
 428:	34030046 	li	$v1,0x46
 42c:	34040005 	li	$a0,0x5
 430:	00641022 	sub	$v0,$v1,$a0
 434:	a2820000 	sb	$v0,0($s4)
 438:	a2970000 	sb	$s7,0($s4)
 43c:	3402006e 	li	$v0,0x6e
 440:	a2820000 	sb	$v0,0($s4)
 444:	3402003a 	li	$v0,0x3a
 448:	a2820000 	sb	$v0,0($s4)
 44c:	34030046 	li	$v1,0x46
 450:	34040005 	li	$a0,0x5
 454:	00641023 	subu	$v0,$v1,$a0
 458:	a2820000 	sb	$v0,0($s4)
 45c:	a2970000 	sb	$s7,0($s4)
 460:	a2950000 	sb	$s5,0($s4)
 464:	34020042 	li	$v0,0x42
 468:	a2820000 	sb	$v0,0($s4)
 46c:	34020072 	li	$v0,0x72
 470:	a2820000 	sb	$v0,0($s4)
 474:	34020061 	li	$v0,0x61
 478:	a2820000 	sb	$v0,0($s4)
 47c:	3402006e 	li	$v0,0x6e
 480:	a2820000 	sb	$v0,0($s4)
 484:	34020063 	li	$v0,0x63
 488:	a2820000 	sb	$v0,0($s4)
 48c:	34020068 	li	$v0,0x68
 490:	a2820000 	sb	$v0,0($s4)
 494:	a2970000 	sb	$s7,0($s4)
 498:	a2950000 	sb	$s5,0($s4)
 49c:	34020061 	li	$v0,0x61
 4a0:	a2820000 	sb	$v0,0($s4)
 4a4:	3402003a 	li	$v0,0x3a
 4a8:	a2820000 	sb	$v0,0($s4)
 4ac:	340a0041 	li	$t2,0x41
 4b0:	340b0042 	li	$t3,0x42
 4b4:	10000002 	b	4c0 <entry+0x4c0>
 4b8:	a28a0000 	sb	$t2,0($s4)
 4bc:	a2960000 	sb	$s6,0($s4)
 4c0:	a28b0000 	sb	$t3,0($s4)
 4c4:	a2970000 	sb	$s7,0($s4)
 4c8:	34020062 	li	$v0,0x62
 4cc:	a2820000 	sb	$v0,0($s4)
 4d0:	3402003a 	li	$v0,0x3a
 4d4:	a2820000 	sb	$v0,0($s4)
 4d8:	340a0041 	li	$t2,0x41
 4dc:	340b0042 	li	$t3,0x42
 4e0:	340c0043 	li	$t4,0x43
 4e4:	340d0044 	li	$t5,0x44
 4e8:	340e0045 	li	$t6,0x45
 4ec:	340f0058 	li	$t7,0x58
 4f0:	04110005 	bal	508 <entry+0x508>
 4f4:	a28a0000 	sb	$t2,0($s4)
 4f8:	a28d0000 	sb	$t5,0($s4)
 4fc:	10000006 	b	518 <entry+0x518>
 500:	a28e0000 	sb	$t6,0($s4)
 504:	a28f0000 	sb	$t7,0($s4)
 508:	a28b0000 	sb	$t3,0($s4)
 50c:	03e00008 	jr	$ra
 510:	a28c0000 	sb	$t4,0($s4)
 514:	a2960000 	sb	$s6,0($s4)
 518:	a2970000 	sb	$s7,0($s4)
 51c:	34020063 	li	$v0,0x63
 520:	a2820000 	sb	$v0,0($s4)
 524:	3402003a 	li	$v0,0x3a
 528:	a2820000 	sb	$v0,0($s4)
 52c:	340a0041 	li	$t2,0x41
 530:	340b0042 	li	$t3,0x42
 534:	340c0043 	li	$t4,0x43
 538:	340d0044 	li	$t5,0x44
 53c:	34020064 	li	$v0,0x64
 540:	3403007b 	li	$v1,0x7b
 544:	3404007b 	li	$a0,0x7b
 548:	10430005 	beq	$v0,$v1,560 <entry+0x560>
 54c:	a28a0000 	sb	$t2,0($s4)
 550:	a28b0000 	sb	$t3,0($s4)
 554:	10640002 	beq	$v1,$a0,560 <entry+0x560>
 558:	a28c0000 	sb	$t4,0($s4)
 55c:	a2960000 	sb	$s6,0($s4)
 560:	a28d0000 	sb	$t5,0($s4)
 564:	a2970000 	sb	$s7,0($s4)
 568:	34020064 	li	$v0,0x64
 56c:	a2820000 	sb	$v0,0($s4)
 570:	3402003a 	li	$v0,0x3a
 574:	a2820000 	sb	$v0,0($s4)
 578:	340a0041 	li	$t2,0x41
 57c:	340b0042 	li	$t3,0x42
 580:	340c0043 	li	$t4,0x43
 584:	340d0044 	li	$t5,0x44
 588:	340f0058 	li	$t7,0x58
 58c:	34020064 	li	$v0,0x64
 590:	3c03ffff 	lui	$v1,0xffff
 594:	34631234 	ori	$v1,$v1,0x1234
 598:	3404007b 	li	$a0,0x7b
 59c:	04610005 	bgez	$v1,5b4 <entry+0x5b4>
 5a0:	a28a0000 	sb	$t2,0($s4)
 5a4:	a28b0000 	sb	$t3,0($s4)
 5a8:	04410002 	bgez	$v0,5b4 <entry+0x5b4>
 5ac:	a28c0000 	sb	$t4,0($s4)
 5b0:	a2960000 	sb	$s6,0($s4)
 5b4:	00000000 	nop
 5b8:	04010002 	b	5c4 <entry+0x5c4>
 5bc:	00000000 	nop
 5c0:	a28f0000 	sb	$t7,0($s4)
 5c4:	a28d0000 	sb	$t5,0($s4)
 5c8:	a2970000 	sb	$s7,0($s4)
 5cc:	34020065 	li	$v0,0x65
 5d0:	a2820000 	sb	$v0,0($s4)
 5d4:	3402003a 	li	$v0,0x3a
 5d8:	a2820000 	sb	$v0,0($s4)
 5dc:	340a0041 	li	$t2,0x41
 5e0:	340b0042 	li	$t3,0x42
 5e4:	340c0043 	li	$t4,0x43
 5e8:	340d0044 	li	$t5,0x44
 5ec:	340e0045 	li	$t6,0x45
 5f0:	340f0058 	li	$t7,0x58
 5f4:	3c03ffff 	lui	$v1,0xffff
 5f8:	34631234 	ori	$v1,$v1,0x1234
 5fc:	04710008 	bgezal	$v1,620 <entry+0x620>
 600:	00000000 	nop
 604:	a28a0000 	sb	$t2,0($s4)
 608:	04110005 	bal	620 <entry+0x620>
 60c:	00000000 	nop
 610:	a28d0000 	sb	$t5,0($s4)
 614:	10000006 	b	630 <entry+0x630>
 618:	a28e0000 	sb	$t6,0($s4)
 61c:	a28f0000 	sb	$t7,0($s4)
 620:	a28b0000 	sb	$t3,0($s4)
 624:	03e00008 	jr	$ra
 628:	a28c0000 	sb	$t4,0($s4)
 62c:	a2960000 	sb	$s6,0($s4)
 630:	a2970000 	sb	$s7,0($s4)
 634:	34020066 	li	$v0,0x66
 638:	a2820000 	sb	$v0,0($s4)
 63c:	3402003a 	li	$v0,0x3a
 640:	a2820000 	sb	$v0,0($s4)
 644:	340a0041 	li	$t2,0x41
 648:	340b0042 	li	$t3,0x42
 64c:	340c0043 	li	$t4,0x43
 650:	340d0044 	li	$t5,0x44
 654:	34020064 	li	$v0,0x64
 658:	3c03ffff 	lui	$v1,0xffff
 65c:	34631234 	ori	$v1,$v1,0x1234
 660:	1c600005 	bgtz	$v1,678 <entry+0x678>
 664:	a28a0000 	sb	$t2,0($s4)
 668:	a28b0000 	sb	$t3,0($s4)
 66c:	1c400002 	bgtz	$v0,678 <entry+0x678>
 670:	a28c0000 	sb	$t4,0($s4)
 674:	a2960000 	sb	$s6,0($s4)
 678:	a28d0000 	sb	$t5,0($s4)
 67c:	a2970000 	sb	$s7,0($s4)
 680:	34020067 	li	$v0,0x67
 684:	a2820000 	sb	$v0,0($s4)
 688:	3402003a 	li	$v0,0x3a
 68c:	a2820000 	sb	$v0,0($s4)
 690:	340a0041 	li	$t2,0x41
 694:	340b0042 	li	$t3,0x42
 698:	340c0043 	li	$t4,0x43
 69c:	340d0044 	li	$t5,0x44
 6a0:	34020064 	li	$v0,0x64
 6a4:	3c03ffff 	lui	$v1,0xffff
 6a8:	34631234 	ori	$v1,$v1,0x1234
 6ac:	18400005 	blez	$v0,6c4 <entry+0x6c4>
 6b0:	a28a0000 	sb	$t2,0($s4)
 6b4:	a28b0000 	sb	$t3,0($s4)
 6b8:	18600002 	blez	$v1,6c4 <entry+0x6c4>
 6bc:	a28c0000 	sb	$t4,0($s4)
 6c0:	a2960000 	sb	$s6,0($s4)
 6c4:	00000000 	nop
 6c8:	18000002 	blez	$zero,6d4 <entry+0x6d4>
 6cc:	00000000 	nop
 6d0:	a2960000 	sb	$s6,0($s4)
 6d4:	a28d0000 	sb	$t5,0($s4)
 6d8:	a2970000 	sb	$s7,0($s4)
 6dc:	34020068 	li	$v0,0x68
 6e0:	a2820000 	sb	$v0,0($s4)
 6e4:	3402003a 	li	$v0,0x3a
 6e8:	a2820000 	sb	$v0,0($s4)
 6ec:	340a0041 	li	$t2,0x41
 6f0:	340b0042 	li	$t3,0x42
 6f4:	340c0043 	li	$t4,0x43
 6f8:	340d0044 	li	$t5,0x44
 6fc:	340e0045 	li	$t6,0x45
 700:	34020064 	li	$v0,0x64
 704:	3c03ffff 	lui	$v1,0xffff
 708:	34631234 	ori	$v1,$v1,0x1234
 70c:	34040000 	li	$a0,0x0
 710:	04400005 	bltz	$v0,728 <entry+0x728>
 714:	a28a0000 	sb	$t2,0($s4)
 718:	a28b0000 	sb	$t3,0($s4)
 71c:	04600002 	bltz	$v1,728 <entry+0x728>
 720:	a28c0000 	sb	$t4,0($s4)
 724:	a2960000 	sb	$s6,0($s4)
 728:	00000000 	nop
 72c:	04800002 	bltz	$a0,738 <entry+0x738>
 730:	00000000 	nop
 734:	a28d0000 	sb	$t5,0($s4)
 738:	a28e0000 	sb	$t6,0($s4)
 73c:	a2970000 	sb	$s7,0($s4)
 740:	34020069 	li	$v0,0x69
 744:	a2820000 	sb	$v0,0($s4)
 748:	3402003a 	li	$v0,0x3a
 74c:	a2820000 	sb	$v0,0($s4)
 750:	340a0041 	li	$t2,0x41
 754:	340b0042 	li	$t3,0x42
 758:	340c0043 	li	$t4,0x43
 75c:	340d0044 	li	$t5,0x44
 760:	340e0045 	li	$t6,0x45
 764:	340f0058 	li	$t7,0x58
 768:	3c03ffff 	lui	$v1,0xffff
 76c:	34631234 	ori	$v1,$v1,0x1234
 770:	04100008 	bltzal	$zero,794 <entry+0x794>
 774:	00000000 	nop
 778:	a28a0000 	sb	$t2,0($s4)
 77c:	04700005 	bltzal	$v1,794 <entry+0x794>
 780:	00000000 	nop
 784:	a28d0000 	sb	$t5,0($s4)
 788:	10000006 	b	7a4 <entry+0x7a4>
 78c:	a28e0000 	sb	$t6,0($s4)
 790:	a28f0000 	sb	$t7,0($s4)
 794:	a28b0000 	sb	$t3,0($s4)
 798:	03e00008 	jr	$ra
 79c:	a28c0000 	sb	$t4,0($s4)
 7a0:	a2960000 	sb	$s6,0($s4)
 7a4:	a2970000 	sb	$s7,0($s4)
 7a8:	3402006a 	li	$v0,0x6a
 7ac:	a2820000 	sb	$v0,0($s4)
 7b0:	3402003a 	li	$v0,0x3a
 7b4:	a2820000 	sb	$v0,0($s4)
 7b8:	340a0041 	li	$t2,0x41
 7bc:	340b0042 	li	$t3,0x42
 7c0:	340c0043 	li	$t4,0x43
 7c4:	340d0044 	li	$t5,0x44
 7c8:	34020064 	li	$v0,0x64
 7cc:	3403007b 	li	$v1,0x7b
 7d0:	3404007b 	li	$a0,0x7b
 7d4:	14640005 	bne	$v1,$a0,7ec <entry+0x7ec>
 7d8:	a28a0000 	sb	$t2,0($s4)
 7dc:	a28b0000 	sb	$t3,0($s4)
 7e0:	14430002 	bne	$v0,$v1,7ec <entry+0x7ec>
 7e4:	a28c0000 	sb	$t4,0($s4)
 7e8:	a2960000 	sb	$s6,0($s4)
 7ec:	a28d0000 	sb	$t5,0($s4)
 7f0:	a2970000 	sb	$s7,0($s4)
 7f4:	3402006b 	li	$v0,0x6b
 7f8:	a2820000 	sb	$v0,0($s4)
 7fc:	3402003a 	li	$v0,0x3a
 800:	a2820000 	sb	$v0,0($s4)
 804:	340a0041 	li	$t2,0x41
 808:	340b0042 	li	$t3,0x42
 80c:	340f0058 	li	$t7,0x58
 810:	08000207 	j	81c <entry+0x81c>
 814:	a28a0000 	sb	$t2,0($s4)
 818:	a28f0000 	sb	$t7,0($s4)
 81c:	a28b0000 	sb	$t3,0($s4)
 820:	a2970000 	sb	$s7,0($s4)
 824:	3402006c 	li	$v0,0x6c
 828:	a2820000 	sb	$v0,0($s4)
 82c:	3402003a 	li	$v0,0x3a
 830:	a2820000 	sb	$v0,0($s4)
 834:	340a0041 	li	$t2,0x41
 838:	340b0042 	li	$t3,0x42
 83c:	340c0043 	li	$t4,0x43
 840:	340d0044 	li	$t5,0x44
 844:	340e0045 	li	$t6,0x45
 848:	340f0058 	li	$t7,0x58
 84c:	0c000219 	jal	864 <entry+0x864>
 850:	a28a0000 	sb	$t2,0($s4)
 854:	a28d0000 	sb	$t5,0($s4)
 858:	10000006 	b	874 <entry+0x874>
 85c:	a28e0000 	sb	$t6,0($s4)
 860:	a28f0000 	sb	$t7,0($s4)
 864:	a28b0000 	sb	$t3,0($s4)
 868:	03e00008 	jr	$ra
 86c:	a28c0000 	sb	$t4,0($s4)
 870:	a2960000 	sb	$s6,0($s4)
 874:	a2970000 	sb	$s7,0($s4)
 878:	3402006d 	li	$v0,0x6d
 87c:	a2820000 	sb	$v0,0($s4)
 880:	3402003a 	li	$v0,0x3a
 884:	a2820000 	sb	$v0,0($s4)
 888:	340a0041 	li	$t2,0x41
 88c:	340b0042 	li	$t3,0x42
 890:	340c0043 	li	$t4,0x43
 894:	340d0044 	li	$t5,0x44
 898:	340e0045 	li	$t6,0x45
 89c:	340f0058 	li	$t7,0x58
 8a0:	3c030000 	lui	$v1,0x0
 8a4:	246308c0 	addiu	$v1,$v1,2240
 8a8:	0060f809 	jalr	$v1
 8ac:	a28a0000 	sb	$t2,0($s4)
 8b0:	a28d0000 	sb	$t5,0($s4)
 8b4:	10000006 	b	8d0 <entry+0x8d0>
 8b8:	a28e0000 	sb	$t6,0($s4)
 8bc:	a28f0000 	sb	$t7,0($s4)
 8c0:	a28b0000 	sb	$t3,0($s4)
 8c4:	03e00008 	jr	$ra
 8c8:	a28c0000 	sb	$t4,0($s4)
 8cc:	a2960000 	sb	$s6,0($s4)
 8d0:	a2970000 	sb	$s7,0($s4)
 8d4:	3402006e 	li	$v0,0x6e
 8d8:	a2820000 	sb	$v0,0($s4)
 8dc:	3402003a 	li	$v0,0x3a
 8e0:	a2820000 	sb	$v0,0($s4)
 8e4:	340a0041 	li	$t2,0x41
 8e8:	340b0042 	li	$t3,0x42
 8ec:	340f0058 	li	$t7,0x58
 8f0:	3c030000 	lui	$v1,0x0
 8f4:	24630904 	addiu	$v1,$v1,2308
 8f8:	00600008 	jr	$v1
 8fc:	a28a0000 	sb	$t2,0($s4)
 900:	a28f0000 	sb	$t7,0($s4)
 904:	a28b0000 	sb	$t3,0($s4)
 908:	a2970000 	sb	$s7,0($s4)
 90c:	3402006f 	li	$v0,0x6f
 910:	a2820000 	sb	$v0,0($s4)
 914:	3402003a 	li	$v0,0x3a
 918:	a2820000 	sb	$v0,0($s4)
 91c:	34020041 	li	$v0,0x41
 920:	00000000 	nop
 924:	a2820000 	sb	$v0,0($s4)
 928:	a2970000 	sb	$s7,0($s4)
 92c:	a2950000 	sb	$s5,0($s4)
 930:	3402004c 	li	$v0,0x4c
 934:	a2820000 	sb	$v0,0($s4)
 938:	3402006f 	li	$v0,0x6f
 93c:	a2820000 	sb	$v0,0($s4)
 940:	34020061 	li	$v0,0x61
 944:	a2820000 	sb	$v0,0($s4)
 948:	34020064 	li	$v0,0x64
 94c:	a2820000 	sb	$v0,0($s4)
 950:	a2970000 	sb	$s7,0($s4)
 954:	a2950000 	sb	$s5,0($s4)
 958:	34020061 	li	$v0,0x61
 95c:	a2820000 	sb	$v0,0($s4)
 960:	3402003a 	li	$v0,0x3a
 964:	a2820000 	sb	$v0,0($s4)
 968:	00181025 	or	$v0,$zero,$t8
 96c:	3c034142 	lui	$v1,0x4142
 970:	346343fc 	ori	$v1,$v1,0x43fc
 974:	ac430010 	sw	$v1,16($v0)
 978:	80440010 	lb	$a0,16($v0)
 97c:	a2840000 	sb	$a0,0($s4)
 980:	80440011 	lb	$a0,17($v0)
 984:	a2840000 	sb	$a0,0($s4)
 988:	80440012 	lb	$a0,18($v0)
 98c:	a2840000 	sb	$a0,0($s4)
 990:	80420013 	lb	$v0,19($v0)
 994:	00021a03 	sra	$v1,$v0,0x8
 998:	20630045 	addi	$v1,$v1,69
 99c:	a2830000 	sb	$v1,0($s4)
 9a0:	20420049 	addi	$v0,$v0,73
 9a4:	a2820000 	sb	$v0,0($s4)
 9a8:	a2970000 	sb	$s7,0($s4)
 9ac:	a2950000 	sb	$s5,0($s4)
 9b0:	34020062 	li	$v0,0x62
 9b4:	a2820000 	sb	$v0,0($s4)
 9b8:	3402003a 	li	$v0,0x3a
 9bc:	a2820000 	sb	$v0,0($s4)
 9c0:	00181025 	or	$v0,$zero,$t8
 9c4:	3c034142 	lui	$v1,0x4142
 9c8:	34634344 	ori	$v1,$v1,0x4344
 9cc:	ac430010 	sw	$v1,16($v0)
 9d0:	90440010 	lbu	$a0,16($v0)
 9d4:	a2840000 	sb	$a0,0($s4)
 9d8:	90440011 	lbu	$a0,17($v0)
 9dc:	a2840000 	sb	$a0,0($s4)
 9e0:	90440012 	lbu	$a0,18($v0)
 9e4:	a2840000 	sb	$a0,0($s4)
 9e8:	90420013 	lbu	$v0,19($v0)
 9ec:	a2820000 	sb	$v0,0($s4)
 9f0:	a2970000 	sb	$s7,0($s4)
 9f4:	34020063 	li	$v0,0x63
 9f8:	a2820000 	sb	$v0,0($s4)
 9fc:	3402003a 	li	$v0,0x3a
 a00:	a2820000 	sb	$v0,0($s4)
 a04:	00181025 	or	$v0,$zero,$t8
 a08:	3c030041 	lui	$v1,0x41
 a0c:	34630042 	ori	$v1,$v1,0x42
 a10:	ac430010 	sw	$v1,16($v0)
 a14:	84440010 	lh	$a0,16($v0)
 a18:	a2840000 	sb	$a0,0($s4)
 a1c:	84420012 	lh	$v0,18($v0)
 a20:	a2820000 	sb	$v0,0($s4)
 a24:	a2970000 	sb	$s7,0($s4)
 a28:	34020064 	li	$v0,0x64
 a2c:	a2820000 	sb	$v0,0($s4)
 a30:	3402003a 	li	$v0,0x3a
 a34:	a2820000 	sb	$v0,0($s4)
 a38:	00181025 	or	$v0,$zero,$t8
 a3c:	3c030041 	lui	$v1,0x41
 a40:	34630042 	ori	$v1,$v1,0x42
 a44:	ac430010 	sw	$v1,16($v0)
 a48:	94440010 	lhu	$a0,16($v0)
 a4c:	a2840000 	sb	$a0,0($s4)
 a50:	94420012 	lhu	$v0,18($v0)
 a54:	a2820000 	sb	$v0,0($s4)
 a58:	a2970000 	sb	$s7,0($s4)
 a5c:	34020065 	li	$v0,0x65
 a60:	a2820000 	sb	$v0,0($s4)
 a64:	3402003a 	li	$v0,0x3a
 a68:	a2820000 	sb	$v0,0($s4)
 a6c:	00181025 	or	$v0,$zero,$t8
 a70:	24030041 	li	$v1,65
 a74:	ac430010 	sw	$v1,16($v0)
 a78:	34030000 	li	$v1,0x0
 a7c:	8c420010 	lw	$v0,16($v0)
 a80:	a2820000 	sb	$v0,0($s4)
 a84:	a2970000 	sb	$s7,0($s4)
 a88:	34020067 	li	$v0,0x67
 a8c:	a2820000 	sb	$v0,0($s4)
 a90:	3402003a 	li	$v0,0x3a
 a94:	a2820000 	sb	$v0,0($s4)
 a98:	34020041 	li	$v0,0x41
 a9c:	a2820000 	sb	$v0,0($s4)
 aa0:	a2970000 	sb	$s7,0($s4)
 aa4:	34020068 	li	$v0,0x68
 aa8:	a2820000 	sb	$v0,0($s4)
 aac:	3402003a 	li	$v0,0x3a
 ab0:	a2820000 	sb	$v0,0($s4)
 ab4:	00182025 	or	$a0,$zero,$t8
 ab8:	34024142 	li	$v0,0x4142
 abc:	a4820010 	sh	$v0,16($a0)
 ac0:	80830010 	lb	$v1,16($a0)
 ac4:	a2830000 	sb	$v1,0($s4)
 ac8:	80820011 	lb	$v0,17($a0)
 acc:	a2820000 	sb	$v0,0($s4)
 ad0:	a2970000 	sb	$s7,0($s4)
 ad4:	34020069 	li	$v0,0x69
 ad8:	a2820000 	sb	$v0,0($s4)
 adc:	3402003a 	li	$v0,0x3a
 ae0:	a2820000 	sb	$v0,0($s4)
 ae4:	00181025 	or	$v0,$zero,$t8
 ae8:	3c034142 	lui	$v1,0x4142
 aec:	34634344 	ori	$v1,$v1,0x4344
 af0:	ac430010 	sw	$v1,16($v0)
 af4:	80440010 	lb	$a0,16($v0)
 af8:	a2840000 	sb	$a0,0($s4)
 afc:	80440011 	lb	$a0,17($v0)
 b00:	a2840000 	sb	$a0,0($s4)
 b04:	80440012 	lb	$a0,18($v0)
 b08:	a2840000 	sb	$a0,0($s4)
 b0c:	80420013 	lb	$v0,19($v0)
 b10:	a2820000 	sb	$v0,0($s4)
 b14:	a2970000 	sb	$s7,0($s4)
 b18:	a2950000 	sb	$s5,0($s4)
 b1c:	3402004c 	li	$v0,0x4c
 b20:	a2820000 	sb	$v0,0($s4)
 b24:	3402006f 	li	$v0,0x6f
 b28:	a2820000 	sb	$v0,0($s4)
 b2c:	34020067 	li	$v0,0x67
 b30:	a2820000 	sb	$v0,0($s4)
 b34:	34020069 	li	$v0,0x69
 b38:	a2820000 	sb	$v0,0($s4)
 b3c:	34020063 	li	$v0,0x63
 b40:	a2820000 	sb	$v0,0($s4)
 b44:	a2970000 	sb	$s7,0($s4)
 b48:	a2950000 	sb	$s5,0($s4)
 b4c:	34020061 	li	$v0,0x61
 b50:	a2820000 	sb	$v0,0($s4)
 b54:	3402003a 	li	$v0,0x3a
 b58:	a2820000 	sb	$v0,0($s4)
 b5c:	34020741 	li	$v0,0x741
 b60:	340360f3 	li	$v1,0x60f3
 b64:	00432024 	and	$a0,$v0,$v1
 b68:	a2840000 	sb	$a0,0($s4)
 b6c:	a2970000 	sb	$s7,0($s4)
 b70:	34020062 	li	$v0,0x62
 b74:	a2820000 	sb	$v0,0($s4)
 b78:	3402003a 	li	$v0,0x3a
 b7c:	a2820000 	sb	$v0,0($s4)
 b80:	34020741 	li	$v0,0x741
 b84:	304460f3 	andi	$a0,$v0,0x60f3
 b88:	a2840000 	sb	$a0,0($s4)
 b8c:	a2970000 	sb	$s7,0($s4)
 b90:	34020063 	li	$v0,0x63
 b94:	a2820000 	sb	$v0,0($s4)
 b98:	3402003a 	li	$v0,0x3a
 b9c:	a2820000 	sb	$v0,0($s4)
 ba0:	3c020041 	lui	$v0,0x41
 ba4:	00021c02 	srl	$v1,$v0,0x10
 ba8:	a2830000 	sb	$v1,0($s4)
 bac:	a2970000 	sb	$s7,0($s4)
 bb0:	34020064 	li	$v0,0x64
 bb4:	a2820000 	sb	$v0,0($s4)
 bb8:	3402003a 	li	$v0,0x3a
 bbc:	a2820000 	sb	$v0,0($s4)
 bc0:	3c02f0ff 	lui	$v0,0xf0ff
 bc4:	3442f08e 	ori	$v0,$v0,0xf08e
 bc8:	3c030f0f 	lui	$v1,0xf0f
 bcc:	34630f30 	ori	$v1,$v1,0xf30
 bd0:	00432027 	nor	$a0,$v0,$v1
 bd4:	a2840000 	sb	$a0,0($s4)
 bd8:	a2970000 	sb	$s7,0($s4)
 bdc:	34020065 	li	$v0,0x65
 be0:	a2820000 	sb	$v0,0($s4)
 be4:	3402003a 	li	$v0,0x3a
 be8:	a2820000 	sb	$v0,0($s4)
 bec:	34020040 	li	$v0,0x40
 bf0:	34030001 	li	$v1,0x1
 bf4:	00432025 	or	$a0,$v0,$v1
 bf8:	a2840000 	sb	$a0,0($s4)
 bfc:	a2970000 	sb	$s7,0($s4)
 c00:	34020066 	li	$v0,0x66
 c04:	a2820000 	sb	$v0,0($s4)
 c08:	3402003a 	li	$v0,0x3a
 c0c:	a2820000 	sb	$v0,0($s4)
 c10:	34020040 	li	$v0,0x40
 c14:	34440001 	ori	$a0,$v0,0x1
 c18:	a2840000 	sb	$a0,0($s4)
 c1c:	a2970000 	sb	$s7,0($s4)
 c20:	34020067 	li	$v0,0x67
 c24:	a2820000 	sb	$v0,0($s4)
 c28:	3402003a 	li	$v0,0x3a
 c2c:	a2820000 	sb	$v0,0($s4)
 c30:	3402f043 	li	$v0,0xf043
 c34:	3403f002 	li	$v1,0xf002
 c38:	00432026 	xor	$a0,$v0,$v1
 c3c:	a2840000 	sb	$a0,0($s4)
 c40:	a2970000 	sb	$s7,0($s4)
 c44:	34020068 	li	$v0,0x68
 c48:	a2820000 	sb	$v0,0($s4)
 c4c:	3402003a 	li	$v0,0x3a
 c50:	a2820000 	sb	$v0,0($s4)
 c54:	3402f043 	li	$v0,0xf043
 c58:	3844f002 	xori	$a0,$v0,0xf002
 c5c:	a2840000 	sb	$a0,0($s4)
 c60:	a2970000 	sb	$s7,0($s4)
 c64:	a2950000 	sb	$s5,0($s4)
 c68:	3402004d 	li	$v0,0x4d
 c6c:	a2820000 	sb	$v0,0($s4)
 c70:	3402006f 	li	$v0,0x6f
 c74:	a2820000 	sb	$v0,0($s4)
 c78:	34020076 	li	$v0,0x76
 c7c:	a2820000 	sb	$v0,0($s4)
 c80:	34020065 	li	$v0,0x65
 c84:	a2820000 	sb	$v0,0($s4)
 c88:	a2970000 	sb	$s7,0($s4)
 c8c:	a2950000 	sb	$s5,0($s4)
 c90:	34020061 	li	$v0,0x61
 c94:	a2820000 	sb	$v0,0($s4)
 c98:	3402003a 	li	$v0,0x3a
 c9c:	a2820000 	sb	$v0,0($s4)
 ca0:	34020041 	li	$v0,0x41
 ca4:	00400011 	mthi	$v0
 ca8:	00001810 	mfhi	$v1
 cac:	a2830000 	sb	$v1,0($s4)
 cb0:	a2970000 	sb	$s7,0($s4)
 cb4:	a2950000 	sb	$s5,0($s4)
 cb8:	34020062 	li	$v0,0x62
 cbc:	a2820000 	sb	$v0,0($s4)
 cc0:	3402003a 	li	$v0,0x3a
 cc4:	a2820000 	sb	$v0,0($s4)
 cc8:	34020041 	li	$v0,0x41
 ccc:	00400013 	mtlo	$v0
 cd0:	00001812 	mflo	$v1
 cd4:	a2830000 	sb	$v1,0($s4)
 cd8:	a2970000 	sb	$s7,0($s4)
 cdc:	34020063 	li	$v0,0x63
 ce0:	a2820000 	sb	$v0,0($s4)
 ce4:	3402003a 	li	$v0,0x3a
 ce8:	a2820000 	sb	$v0,0($s4)
 cec:	34020041 	li	$v0,0x41
 cf0:	00400011 	mthi	$v0
 cf4:	00001810 	mfhi	$v1
 cf8:	a2830000 	sb	$v1,0($s4)
 cfc:	a2970000 	sb	$s7,0($s4)
 d00:	34020064 	li	$v0,0x64
 d04:	a2820000 	sb	$v0,0($s4)
 d08:	3402003a 	li	$v0,0x3a
 d0c:	a2820000 	sb	$v0,0($s4)
 d10:	34020041 	li	$v0,0x41
 d14:	00400013 	mtlo	$v0
 d18:	00001812 	mflo	$v1
 d1c:	a2830000 	sb	$v1,0($s4)
 d20:	a2970000 	sb	$s7,0($s4)
 d24:	a2950000 	sb	$s5,0($s4)
 d28:	34020053 	li	$v0,0x53
 d2c:	a2820000 	sb	$v0,0($s4)
 d30:	34020068 	li	$v0,0x68
 d34:	a2820000 	sb	$v0,0($s4)
 d38:	34020069 	li	$v0,0x69
 d3c:	a2820000 	sb	$v0,0($s4)
 d40:	34020066 	li	$v0,0x66
 d44:	a2820000 	sb	$v0,0($s4)
 d48:	34020074 	li	$v0,0x74
 d4c:	a2820000 	sb	$v0,0($s4)
 d50:	a2970000 	sb	$s7,0($s4)
 d54:	a2950000 	sb	$s5,0($s4)
 d58:	34020061 	li	$v0,0x61
 d5c:	a2820000 	sb	$v0,0($s4)
 d60:	3402003a 	li	$v0,0x3a
 d64:	a2820000 	sb	$v0,0($s4)
 d68:	3c024041 	lui	$v0,0x4041
 d6c:	34424243 	ori	$v0,$v0,0x4243
 d70:	00021a00 	sll	$v1,$v0,0x8
 d74:	00031e02 	srl	$v1,$v1,0x18
 d78:	a2830000 	sb	$v1,0($s4)
 d7c:	a2970000 	sb	$s7,0($s4)
 d80:	34020062 	li	$v0,0x62
 d84:	a2820000 	sb	$v0,0($s4)
 d88:	3402003a 	li	$v0,0x3a
 d8c:	a2820000 	sb	$v0,0($s4)
 d90:	3c024041 	lui	$v0,0x4041
 d94:	34424243 	ori	$v0,$v0,0x4243
 d98:	34030008 	li	$v1,0x8
 d9c:	00621804 	sllv	$v1,$v0,$v1
 da0:	00031e02 	srl	$v1,$v1,0x18
 da4:	a2830000 	sb	$v1,0($s4)
 da8:	a2970000 	sb	$s7,0($s4)
 dac:	34020063 	li	$v0,0x63
 db0:	a2820000 	sb	$v0,0($s4)
 db4:	3402003a 	li	$v0,0x3a
 db8:	a2820000 	sb	$v0,0($s4)
 dbc:	3c024041 	lui	$v0,0x4041
 dc0:	34424243 	ori	$v0,$v0,0x4243
 dc4:	00021c03 	sra	$v1,$v0,0x10
 dc8:	a2830000 	sb	$v1,0($s4)
 dcc:	3c028400 	lui	$v0,0x8400
 dd0:	00021e43 	sra	$v1,$v0,0x19
 dd4:	2063ff80 	addi	$v1,$v1,-128
 dd8:	a2830000 	sb	$v1,0($s4)
 ddc:	a2970000 	sb	$s7,0($s4)
 de0:	34020064 	li	$v0,0x64
 de4:	a2820000 	sb	$v0,0($s4)
 de8:	3402003a 	li	$v0,0x3a
 dec:	a2820000 	sb	$v0,0($s4)
 df0:	3c024041 	lui	$v0,0x4041
 df4:	34424243 	ori	$v0,$v0,0x4243
 df8:	34030010 	li	$v1,0x10
 dfc:	00621807 	srav	$v1,$v0,$v1
 e00:	a2830000 	sb	$v1,0($s4)
 e04:	34030019 	li	$v1,0x19
 e08:	3c028400 	lui	$v0,0x8400
 e0c:	00621807 	srav	$v1,$v0,$v1
 e10:	2063ff80 	addi	$v1,$v1,-128
 e14:	a2830000 	sb	$v1,0($s4)
 e18:	a2970000 	sb	$s7,0($s4)
 e1c:	34020065 	li	$v0,0x65
 e20:	a2820000 	sb	$v0,0($s4)
 e24:	3402003a 	li	$v0,0x3a
 e28:	a2820000 	sb	$v0,0($s4)
 e2c:	3c024041 	lui	$v0,0x4041
 e30:	34424243 	ori	$v0,$v0,0x4243
 e34:	00021c02 	srl	$v1,$v0,0x10
 e38:	a2830000 	sb	$v1,0($s4)
 e3c:	3c028400 	lui	$v0,0x8400
 e40:	00021e42 	srl	$v1,$v0,0x19
 e44:	a2830000 	sb	$v1,0($s4)
 e48:	a2970000 	sb	$s7,0($s4)
 e4c:	34020066 	li	$v0,0x66
 e50:	a2820000 	sb	$v0,0($s4)
 e54:	3402003a 	li	$v0,0x3a
 e58:	a2820000 	sb	$v0,0($s4)
 e5c:	3c024041 	lui	$v0,0x4041
 e60:	34424243 	ori	$v0,$v0,0x4243
 e64:	34030010 	li	$v1,0x10
 e68:	00622006 	srlv	$a0,$v0,$v1
 e6c:	a2840000 	sb	$a0,0($s4)
 e70:	34030019 	li	$v1,0x19
 e74:	3c028400 	lui	$v0,0x8400
 e78:	00621806 	srlv	$v1,$v0,$v1
 e7c:	a2830000 	sb	$v1,0($s4)
 e80:	a2970000 	sb	$s7,0($s4)
 e84:	a2950000 	sb	$s5,0($s4)
 e88:	34020044 	li	$v0,0x44
 e8c:	a2820000 	sb	$v0,0($s4)
 e90:	3402006f 	li	$v0,0x6f
 e94:	a2820000 	sb	$v0,0($s4)
 e98:	3402006e 	li	$v0,0x6e
 e9c:	a2820000 	sb	$v0,0($s4)
 ea0:	34020065 	li	$v0,0x65
 ea4:	a2820000 	sb	$v0,0($s4)
 ea8:	a2970000 	sb	$s7,0($s4)
 eac:	a2950000 	sb	$s5,0($s4)
 eb0:	080003ac 	j	eb0 <entry+0xeb0>
 eb4:	00000000 	nop
Disassembly of section .reset_vector:

00000000 <interrupt_service_routine>:
   0:	401a6800 	mfc0	$k0,$cause
   4:	401b7000 	mfc0	$k1,$epc
   8:	277b0000 	addiu	$k1,$k1,0
   c:	40806800 	mtc0	$zero,$cause
  10:	03600008 	jr	$k1
  14:	42000010 	rfe
Disassembly of section .data:

00000000 <__m1_>:
   0:	20204578 	addi	$zero,$at,17784
   4:	63657074 	0x63657074
   8:	696f6e20 	0x696f6e20
	...

0000000d <__m2_>:
   d:	206f6363 	addi	$t7,$v1,25443
  11:	75727265 	jalx	5c9c994 <__m2_+0x5c9c987>
  15:	